
../PA2B/groupmessenger2-grading.linux:     file format elf32-i386


Disassembly of section .init:

080490f4 <_init>:
 80490f4:	55                   	push   %ebp
 80490f5:	89 e5                	mov    %esp,%ebp
 80490f7:	53                   	push   %ebx
 80490f8:	83 ec 04             	sub    $0x4,%esp
 80490fb:	e8 00 00 00 00       	call   8049100 <_init+0xc>
 8049100:	5b                   	pop    %ebx
 8049101:	81 c3 00 50 01 00    	add    $0x15000,%ebx
 8049107:	8b 93 f0 ff ff ff    	mov    -0x10(%ebx),%edx
 804910d:	85 d2                	test   %edx,%edx
 804910f:	74 05                	je     8049116 <_init+0x22>
 8049111:	e8 ce 00 00 00       	call   80491e4 <__gmon_start__@plt>
 8049116:	e8 f5 05 00 00       	call   8049710 <frame_dummy>
 804911b:	e8 c0 35 01 00       	call   805c6e0 <__do_global_ctors_aux>
 8049120:	58                   	pop    %eax
 8049121:	5b                   	pop    %ebx
 8049122:	c9                   	leave  
 8049123:	c3                   	ret    

Disassembly of section .plt:

08049124 <.plt>:
 8049124:	ff 35 04 e1 05 08    	pushl  0x805e104
 804912a:	ff 25 08 e1 05 08    	jmp    *0x805e108
 8049130:	00 00                	add    %al,(%eax)
	...

08049134 <fileno@plt>:
 8049134:	ff 25 0c e1 05 08    	jmp    *0x805e10c
 804913a:	68 00 00 00 00       	push   $0x0
 804913f:	e9 e0 ff ff ff       	jmp    8049124 <.plt>

08049144 <sprintf@plt>:
 8049144:	ff 25 10 e1 05 08    	jmp    *0x805e110
 804914a:	68 08 00 00 00       	push   $0x8
 804914f:	e9 d0 ff ff ff       	jmp    8049124 <.plt>

08049154 <open@plt>:
 8049154:	ff 25 14 e1 05 08    	jmp    *0x805e114
 804915a:	68 10 00 00 00       	push   $0x10
 804915f:	e9 c0 ff ff ff       	jmp    8049124 <.plt>

08049164 <getpid@plt>:
 8049164:	ff 25 18 e1 05 08    	jmp    *0x805e118
 804916a:	68 18 00 00 00       	push   $0x18
 804916f:	e9 b0 ff ff ff       	jmp    8049124 <.plt>

08049174 <mkdir@plt>:
 8049174:	ff 25 1c e1 05 08    	jmp    *0x805e11c
 804917a:	68 20 00 00 00       	push   $0x20
 804917f:	e9 a0 ff ff ff       	jmp    8049124 <.plt>

08049184 <setbuf@plt>:
 8049184:	ff 25 20 e1 05 08    	jmp    *0x805e120
 804918a:	68 28 00 00 00       	push   $0x28
 804918f:	e9 90 ff ff ff       	jmp    8049124 <.plt>

08049194 <qsort@plt>:
 8049194:	ff 25 24 e1 05 08    	jmp    *0x805e124
 804919a:	68 30 00 00 00       	push   $0x30
 804919f:	e9 80 ff ff ff       	jmp    8049124 <.plt>

080491a4 <vprintf@plt>:
 80491a4:	ff 25 28 e1 05 08    	jmp    *0x805e128
 80491aa:	68 38 00 00 00       	push   $0x38
 80491af:	e9 70 ff ff ff       	jmp    8049124 <.plt>

080491b4 <inflateEnd@plt>:
 80491b4:	ff 25 2c e1 05 08    	jmp    *0x805e12c
 80491ba:	68 40 00 00 00       	push   $0x40
 80491bf:	e9 60 ff ff ff       	jmp    8049124 <.plt>

080491c4 <signal@plt>:
 80491c4:	ff 25 30 e1 05 08    	jmp    *0x805e130
 80491ca:	68 48 00 00 00       	push   $0x48
 80491cf:	e9 50 ff ff ff       	jmp    8049124 <.plt>

080491d4 <__xstat@plt>:
 80491d4:	ff 25 34 e1 05 08    	jmp    *0x805e134
 80491da:	68 50 00 00 00       	push   $0x50
 80491df:	e9 40 ff ff ff       	jmp    8049124 <.plt>

080491e4 <__gmon_start__@plt>:
 80491e4:	ff 25 38 e1 05 08    	jmp    *0x805e138
 80491ea:	68 58 00 00 00       	push   $0x58
 80491ef:	e9 30 ff ff ff       	jmp    8049124 <.plt>

080491f4 <realloc@plt>:
 80491f4:	ff 25 3c e1 05 08    	jmp    *0x805e13c
 80491fa:	68 60 00 00 00       	push   $0x60
 80491ff:	e9 20 ff ff ff       	jmp    8049124 <.plt>

08049204 <unsetenv@plt>:
 8049204:	ff 25 40 e1 05 08    	jmp    *0x805e140
 804920a:	68 68 00 00 00       	push   $0x68
 804920f:	e9 10 ff ff ff       	jmp    8049124 <.plt>

08049214 <isspace@plt>:
 8049214:	ff 25 44 e1 05 08    	jmp    *0x805e144
 804921a:	68 70 00 00 00       	push   $0x70
 804921f:	e9 00 ff ff ff       	jmp    8049124 <.plt>

08049224 <strchr@plt>:
 8049224:	ff 25 48 e1 05 08    	jmp    *0x805e148
 804922a:	68 78 00 00 00       	push   $0x78
 804922f:	e9 f0 fe ff ff       	jmp    8049124 <.plt>

08049234 <vsnprintf@plt>:
 8049234:	ff 25 4c e1 05 08    	jmp    *0x805e14c
 804923a:	68 80 00 00 00       	push   $0x80
 804923f:	e9 e0 fe ff ff       	jmp    8049124 <.plt>

08049244 <getenv@plt>:
 8049244:	ff 25 50 e1 05 08    	jmp    *0x805e150
 804924a:	68 88 00 00 00       	push   $0x88
 804924f:	e9 d0 fe ff ff       	jmp    8049124 <.plt>

08049254 <strncpy@plt>:
 8049254:	ff 25 54 e1 05 08    	jmp    *0x805e154
 804925a:	68 90 00 00 00       	push   $0x90
 804925f:	e9 c0 fe ff ff       	jmp    8049124 <.plt>

08049264 <toupper@plt>:
 8049264:	ff 25 58 e1 05 08    	jmp    *0x805e158
 804926a:	68 98 00 00 00       	push   $0x98
 804926f:	e9 b0 fe ff ff       	jmp    8049124 <.plt>

08049274 <fgets@plt>:
 8049274:	ff 25 5c e1 05 08    	jmp    *0x805e15c
 804927a:	68 a0 00 00 00       	push   $0xa0
 804927f:	e9 a0 fe ff ff       	jmp    8049124 <.plt>

08049284 <rename@plt>:
 8049284:	ff 25 60 e1 05 08    	jmp    *0x805e160
 804928a:	68 a8 00 00 00       	push   $0xa8
 804928f:	e9 90 fe ff ff       	jmp    8049124 <.plt>

08049294 <memset@plt>:
 8049294:	ff 25 64 e1 05 08    	jmp    *0x805e164
 804929a:	68 b0 00 00 00       	push   $0xb0
 804929f:	e9 80 fe ff ff       	jmp    8049124 <.plt>

080492a4 <__libc_start_main@plt>:
 80492a4:	ff 25 68 e1 05 08    	jmp    *0x805e168
 80492aa:	68 b8 00 00 00       	push   $0xb8
 80492af:	e9 70 fe ff ff       	jmp    8049124 <.plt>

080492b4 <wait@plt>:
 80492b4:	ff 25 6c e1 05 08    	jmp    *0x805e16c
 80492ba:	68 c0 00 00 00       	push   $0xc0
 80492bf:	e9 60 fe ff ff       	jmp    8049124 <.plt>

080492c4 <strrchr@plt>:
 80492c4:	ff 25 70 e1 05 08    	jmp    *0x805e170
 80492ca:	68 c8 00 00 00       	push   $0xc8
 80492cf:	e9 50 fe ff ff       	jmp    8049124 <.plt>

080492d4 <ntohl@plt>:
 80492d4:	ff 25 74 e1 05 08    	jmp    *0x805e174
 80492da:	68 d0 00 00 00       	push   $0xd0
 80492df:	e9 40 fe ff ff       	jmp    8049124 <.plt>

080492e4 <read@plt>:
 80492e4:	ff 25 78 e1 05 08    	jmp    *0x805e178
 80492ea:	68 d8 00 00 00       	push   $0xd8
 80492ef:	e9 30 fe ff ff       	jmp    8049124 <.plt>

080492f4 <readdir@plt>:
 80492f4:	ff 25 7c e1 05 08    	jmp    *0x805e17c
 80492fa:	68 e0 00 00 00       	push   $0xe0
 80492ff:	e9 20 fe ff ff       	jmp    8049124 <.plt>

08049304 <inflate@plt>:
 8049304:	ff 25 80 e1 05 08    	jmp    *0x805e180
 804930a:	68 e8 00 00 00       	push   $0xe8
 804930f:	e9 10 fe ff ff       	jmp    8049124 <.plt>

08049314 <fdopen@plt>:
 8049314:	ff 25 84 e1 05 08    	jmp    *0x805e184
 804931a:	68 f0 00 00 00       	push   $0xf0
 804931f:	e9 00 fe ff ff       	jmp    8049124 <.plt>

08049324 <free@plt>:
 8049324:	ff 25 88 e1 05 08    	jmp    *0x805e188
 804932a:	68 f8 00 00 00       	push   $0xf8
 804932f:	e9 f0 fd ff ff       	jmp    8049124 <.plt>

08049334 <dlsym@plt>:
 8049334:	ff 25 8c e1 05 08    	jmp    *0x805e18c
 804933a:	68 00 01 00 00       	push   $0x100
 804933f:	e9 e0 fd ff ff       	jmp    8049124 <.plt>

08049344 <fflush@plt>:
 8049344:	ff 25 90 e1 05 08    	jmp    *0x805e190
 804934a:	68 08 01 00 00       	push   $0x108
 804934f:	e9 d0 fd ff ff       	jmp    8049124 <.plt>

08049354 <mkstemp@plt>:
 8049354:	ff 25 94 e1 05 08    	jmp    *0x805e194
 804935a:	68 10 01 00 00       	push   $0x110
 804935f:	e9 c0 fd ff ff       	jmp    8049124 <.plt>

08049364 <opendir@plt>:
 8049364:	ff 25 98 e1 05 08    	jmp    *0x805e198
 804936a:	68 18 01 00 00       	push   $0x118
 804936f:	e9 b0 fd ff ff       	jmp    8049124 <.plt>

08049374 <zlibVersion@plt>:
 8049374:	ff 25 9c e1 05 08    	jmp    *0x805e19c
 804937a:	68 20 01 00 00       	push   $0x120
 804937f:	e9 a0 fd ff ff       	jmp    8049124 <.plt>

08049384 <fseek@plt>:
 8049384:	ff 25 a0 e1 05 08    	jmp    *0x805e1a0
 804938a:	68 28 01 00 00       	push   $0x128
 804938f:	e9 90 fd ff ff       	jmp    8049124 <.plt>

08049394 <realpath@plt>:
 8049394:	ff 25 a4 e1 05 08    	jmp    *0x805e1a4
 804939a:	68 30 01 00 00       	push   $0x130
 804939f:	e9 80 fd ff ff       	jmp    8049124 <.plt>

080493a4 <fclose@plt>:
 80493a4:	ff 25 a8 e1 05 08    	jmp    *0x805e1a8
 80493aa:	68 38 01 00 00       	push   $0x138
 80493af:	e9 70 fd ff ff       	jmp    8049124 <.plt>

080493b4 <memcpy@plt>:
 80493b4:	ff 25 ac e1 05 08    	jmp    *0x805e1ac
 80493ba:	68 40 01 00 00       	push   $0x140
 80493bf:	e9 60 fd ff ff       	jmp    8049124 <.plt>

080493c4 <execv@plt>:
 80493c4:	ff 25 b0 e1 05 08    	jmp    *0x805e1b0
 80493ca:	68 48 01 00 00       	push   $0x148
 80493cf:	e9 50 fd ff ff       	jmp    8049124 <.plt>

080493d4 <execvp@plt>:
 80493d4:	ff 25 b4 e1 05 08    	jmp    *0x805e1b4
 80493da:	68 50 01 00 00       	push   $0x150
 80493df:	e9 40 fd ff ff       	jmp    8049124 <.plt>

080493e4 <strlen@plt>:
 80493e4:	ff 25 b8 e1 05 08    	jmp    *0x805e1b8
 80493ea:	68 58 01 00 00       	push   $0x158
 80493ef:	e9 30 fd ff ff       	jmp    8049124 <.plt>

080493f4 <fopen@plt>:
 80493f4:	ff 25 bc e1 05 08    	jmp    *0x805e1bc
 80493fa:	68 60 01 00 00       	push   $0x160
 80493ff:	e9 20 fd ff ff       	jmp    8049124 <.plt>

08049404 <mkdtemp@plt>:
 8049404:	ff 25 c0 e1 05 08    	jmp    *0x805e1c0
 804940a:	68 68 01 00 00       	push   $0x168
 804940f:	e9 10 fd ff ff       	jmp    8049124 <.plt>

08049414 <unlink@plt>:
 8049414:	ff 25 c4 e1 05 08    	jmp    *0x805e1c4
 804941a:	68 70 01 00 00       	push   $0x170
 804941f:	e9 00 fd ff ff       	jmp    8049124 <.plt>

08049424 <clearerr@plt>:
 8049424:	ff 25 c8 e1 05 08    	jmp    *0x805e1c8
 804942a:	68 78 01 00 00       	push   $0x178
 804942f:	e9 f0 fc ff ff       	jmp    8049124 <.plt>

08049434 <fgetc@plt>:
 8049434:	ff 25 cc e1 05 08    	jmp    *0x805e1cc
 804943a:	68 80 01 00 00       	push   $0x180
 804943f:	e9 e0 fc ff ff       	jmp    8049124 <.plt>

08049444 <__xpg_basename@plt>:
 8049444:	ff 25 d0 e1 05 08    	jmp    *0x805e1d0
 804944a:	68 88 01 00 00       	push   $0x188
 804944f:	e9 d0 fc ff ff       	jmp    8049124 <.plt>

08049454 <feof@plt>:
 8049454:	ff 25 d4 e1 05 08    	jmp    *0x805e1d4
 804945a:	68 90 01 00 00       	push   $0x190
 804945f:	e9 c0 fc ff ff       	jmp    8049124 <.plt>

08049464 <strcpy@plt>:
 8049464:	ff 25 d8 e1 05 08    	jmp    *0x805e1d8
 804946a:	68 98 01 00 00       	push   $0x198
 804946f:	e9 b0 fc ff ff       	jmp    8049124 <.plt>

08049474 <dlopen@plt>:
 8049474:	ff 25 dc e1 05 08    	jmp    *0x805e1dc
 804947a:	68 a0 01 00 00       	push   $0x1a0
 804947f:	e9 a0 fc ff ff       	jmp    8049124 <.plt>

08049484 <ftell@plt>:
 8049484:	ff 25 e0 e1 05 08    	jmp    *0x805e1e0
 804948a:	68 a8 01 00 00       	push   $0x1a8
 804948f:	e9 90 fc ff ff       	jmp    8049124 <.plt>

08049494 <raise@plt>:
 8049494:	ff 25 e4 e1 05 08    	jmp    *0x805e1e4
 804949a:	68 b0 01 00 00       	push   $0x1b0
 804949f:	e9 80 fc ff ff       	jmp    8049124 <.plt>

080494a4 <strcasecmp@plt>:
 80494a4:	ff 25 e8 e1 05 08    	jmp    *0x805e1e8
 80494aa:	68 b8 01 00 00       	push   $0x1b8
 80494af:	e9 70 fc ff ff       	jmp    8049124 <.plt>

080494b4 <closedir@plt>:
 80494b4:	ff 25 ec e1 05 08    	jmp    *0x805e1ec
 80494ba:	68 c0 01 00 00       	push   $0x1c0
 80494bf:	e9 60 fc ff ff       	jmp    8049124 <.plt>

080494c4 <close@plt>:
 80494c4:	ff 25 f0 e1 05 08    	jmp    *0x805e1f0
 80494ca:	68 c8 01 00 00       	push   $0x1c8
 80494cf:	e9 50 fc ff ff       	jmp    8049124 <.plt>

080494d4 <fwrite@plt>:
 80494d4:	ff 25 f4 e1 05 08    	jmp    *0x805e1f4
 80494da:	68 d0 01 00 00       	push   $0x1d0
 80494df:	e9 40 fc ff ff       	jmp    8049124 <.plt>

080494e4 <fprintf@plt>:
 80494e4:	ff 25 f8 e1 05 08    	jmp    *0x805e1f8
 80494ea:	68 d8 01 00 00       	push   $0x1d8
 80494ef:	e9 30 fc ff ff       	jmp    8049124 <.plt>

080494f4 <strstr@plt>:
 80494f4:	ff 25 fc e1 05 08    	jmp    *0x805e1fc
 80494fa:	68 e0 01 00 00       	push   $0x1e0
 80494ff:	e9 20 fc ff ff       	jmp    8049124 <.plt>

08049504 <strncat@plt>:
 8049504:	ff 25 00 e2 05 08    	jmp    *0x805e200
 804950a:	68 e8 01 00 00       	push   $0x1e8
 804950f:	e9 10 fc ff ff       	jmp    8049124 <.plt>

08049514 <remove@plt>:
 8049514:	ff 25 04 e2 05 08    	jmp    *0x805e204
 804951a:	68 f0 01 00 00       	push   $0x1f0
 804951f:	e9 00 fc ff ff       	jmp    8049124 <.plt>

08049524 <malloc@plt>:
 8049524:	ff 25 08 e2 05 08    	jmp    *0x805e208
 804952a:	68 f8 01 00 00       	push   $0x1f8
 804952f:	e9 f0 fb ff ff       	jmp    8049124 <.plt>

08049534 <fputc@plt>:
 8049534:	ff 25 0c e2 05 08    	jmp    *0x805e20c
 804953a:	68 00 02 00 00       	push   $0x200
 804953f:	e9 e0 fb ff ff       	jmp    8049124 <.plt>

08049544 <rmdir@plt>:
 8049544:	ff 25 10 e2 05 08    	jmp    *0x805e210
 804954a:	68 08 02 00 00       	push   $0x208
 804954f:	e9 d0 fb ff ff       	jmp    8049124 <.plt>

08049554 <dlerror@plt>:
 8049554:	ff 25 14 e2 05 08    	jmp    *0x805e214
 804955a:	68 10 02 00 00       	push   $0x210
 804955f:	e9 c0 fb ff ff       	jmp    8049124 <.plt>

08049564 <strtok@plt>:
 8049564:	ff 25 18 e2 05 08    	jmp    *0x805e218
 804956a:	68 18 02 00 00       	push   $0x218
 804956f:	e9 b0 fb ff ff       	jmp    8049124 <.plt>

08049574 <readlink@plt>:
 8049574:	ff 25 1c e2 05 08    	jmp    *0x805e21c
 804957a:	68 20 02 00 00       	push   $0x220
 804957f:	e9 a0 fb ff ff       	jmp    8049124 <.plt>

08049584 <inflateInit_@plt>:
 8049584:	ff 25 20 e2 05 08    	jmp    *0x805e220
 804958a:	68 28 02 00 00       	push   $0x228
 804958f:	e9 90 fb ff ff       	jmp    8049124 <.plt>

08049594 <strncasecmp@plt>:
 8049594:	ff 25 24 e2 05 08    	jmp    *0x805e224
 804959a:	68 30 02 00 00       	push   $0x230
 804959f:	e9 80 fb ff ff       	jmp    8049124 <.plt>

080495a4 <memmove@plt>:
 80495a4:	ff 25 28 e2 05 08    	jmp    *0x805e228
 80495aa:	68 38 02 00 00       	push   $0x238
 80495af:	e9 70 fb ff ff       	jmp    8049124 <.plt>

080495b4 <strcat@plt>:
 80495b4:	ff 25 2c e2 05 08    	jmp    *0x805e22c
 80495ba:	68 40 02 00 00       	push   $0x240
 80495bf:	e9 60 fb ff ff       	jmp    8049124 <.plt>

080495c4 <fork@plt>:
 80495c4:	ff 25 30 e2 05 08    	jmp    *0x805e230
 80495ca:	68 48 02 00 00       	push   $0x248
 80495cf:	e9 50 fb ff ff       	jmp    8049124 <.plt>

080495d4 <vfprintf@plt>:
 80495d4:	ff 25 34 e2 05 08    	jmp    *0x805e234
 80495da:	68 50 02 00 00       	push   $0x250
 80495df:	e9 40 fb ff ff       	jmp    8049124 <.plt>

080495e4 <fread@plt>:
 80495e4:	ff 25 38 e2 05 08    	jmp    *0x805e238
 80495ea:	68 58 02 00 00       	push   $0x258
 80495ef:	e9 30 fb ff ff       	jmp    8049124 <.plt>

080495f4 <kill@plt>:
 80495f4:	ff 25 3c e2 05 08    	jmp    *0x805e23c
 80495fa:	68 60 02 00 00       	push   $0x260
 80495ff:	e9 20 fb ff ff       	jmp    8049124 <.plt>

08049604 <strdup@plt>:
 8049604:	ff 25 40 e2 05 08    	jmp    *0x805e240
 804960a:	68 68 02 00 00       	push   $0x268
 804960f:	e9 10 fb ff ff       	jmp    8049124 <.plt>

08049614 <ferror@plt>:
 8049614:	ff 25 44 e2 05 08    	jmp    *0x805e244
 804961a:	68 70 02 00 00       	push   $0x270
 804961f:	e9 00 fb ff ff       	jmp    8049124 <.plt>

08049624 <tolower@plt>:
 8049624:	ff 25 48 e2 05 08    	jmp    *0x805e248
 804962a:	68 78 02 00 00       	push   $0x278
 804962f:	e9 f0 fa ff ff       	jmp    8049124 <.plt>

08049634 <strcmp@plt>:
 8049634:	ff 25 4c e2 05 08    	jmp    *0x805e24c
 804963a:	68 80 02 00 00       	push   $0x280
 804963f:	e9 e0 fa ff ff       	jmp    8049124 <.plt>

08049644 <setenv@plt>:
 8049644:	ff 25 50 e2 05 08    	jmp    *0x805e250
 804964a:	68 88 02 00 00       	push   $0x288
 804964f:	e9 d0 fa ff ff       	jmp    8049124 <.plt>

08049654 <exit@plt>:
 8049654:	ff 25 54 e2 05 08    	jmp    *0x805e254
 804965a:	68 90 02 00 00       	push   $0x290
 804965f:	e9 c0 fa ff ff       	jmp    8049124 <.plt>

08049664 <fchmod@plt>:
 8049664:	ff 25 58 e2 05 08    	jmp    *0x805e258
 804966a:	68 98 02 00 00       	push   $0x298
 804966f:	e9 b0 fa ff ff       	jmp    8049124 <.plt>

Disassembly of section .text:

08049680 <_start>:
 8049680:	31 ed                	xor    %ebp,%ebp
 8049682:	5e                   	pop    %esi
 8049683:	89 e1                	mov    %esp,%ecx
 8049685:	83 e4 f0             	and    $0xfffffff0,%esp
 8049688:	50                   	push   %eax
 8049689:	54                   	push   %esp
 804968a:	52                   	push   %edx
 804968b:	68 30 c6 05 08       	push   $0x805c630
 8049690:	68 40 c6 05 08       	push   $0x805c640
 8049695:	51                   	push   %ecx
 8049696:	56                   	push   %esi
 8049697:	68 60 b5 05 08       	push   $0x805b560
 804969c:	e8 03 fc ff ff       	call   80492a4 <__libc_start_main@plt>
 80496a1:	f4                   	hlt    
 80496a2:	90                   	nop
 80496a3:	90                   	nop
 80496a4:	90                   	nop
 80496a5:	90                   	nop
 80496a6:	90                   	nop
 80496a7:	90                   	nop
 80496a8:	90                   	nop
 80496a9:	90                   	nop
 80496aa:	90                   	nop
 80496ab:	90                   	nop
 80496ac:	90                   	nop
 80496ad:	90                   	nop
 80496ae:	90                   	nop
 80496af:	90                   	nop

080496b0 <__do_global_dtors_aux>:
 80496b0:	55                   	push   %ebp
 80496b1:	89 e5                	mov    %esp,%ebp
 80496b3:	53                   	push   %ebx
 80496b4:	83 ec 04             	sub    $0x4,%esp
 80496b7:	80 3d 10 e3 05 08 00 	cmpb   $0x0,0x805e310
 80496be:	75 3f                	jne    80496ff <__do_global_dtors_aux+0x4f>
 80496c0:	a1 14 e3 05 08       	mov    0x805e314,%eax
 80496c5:	bb 10 e0 05 08       	mov    $0x805e010,%ebx
 80496ca:	81 eb 0c e0 05 08    	sub    $0x805e00c,%ebx
 80496d0:	c1 fb 02             	sar    $0x2,%ebx
 80496d3:	83 eb 01             	sub    $0x1,%ebx
 80496d6:	39 d8                	cmp    %ebx,%eax
 80496d8:	73 1e                	jae    80496f8 <__do_global_dtors_aux+0x48>
 80496da:	8d b6 00 00 00 00    	lea    0x0(%esi),%esi
 80496e0:	83 c0 01             	add    $0x1,%eax
 80496e3:	a3 14 e3 05 08       	mov    %eax,0x805e314
 80496e8:	ff 14 85 0c e0 05 08 	call   *0x805e00c(,%eax,4)
 80496ef:	a1 14 e3 05 08       	mov    0x805e314,%eax
 80496f4:	39 d8                	cmp    %ebx,%eax
 80496f6:	72 e8                	jb     80496e0 <__do_global_dtors_aux+0x30>
 80496f8:	c6 05 10 e3 05 08 01 	movb   $0x1,0x805e310
 80496ff:	83 c4 04             	add    $0x4,%esp
 8049702:	5b                   	pop    %ebx
 8049703:	5d                   	pop    %ebp
 8049704:	c3                   	ret    
 8049705:	8d 74 26 00          	lea    0x0(%esi,%eiz,1),%esi
 8049709:	8d bc 27 00 00 00 00 	lea    0x0(%edi,%eiz,1),%edi

08049710 <frame_dummy>:
 8049710:	55                   	push   %ebp
 8049711:	89 e5                	mov    %esp,%ebp
 8049713:	83 ec 18             	sub    $0x18,%esp
 8049716:	a1 14 e0 05 08       	mov    0x805e014,%eax
 804971b:	85 c0                	test   %eax,%eax
 804971d:	74 12                	je     8049731 <frame_dummy+0x21>
 804971f:	b8 00 00 00 00       	mov    $0x0,%eax
 8049724:	85 c0                	test   %eax,%eax
 8049726:	74 09                	je     8049731 <frame_dummy+0x21>
 8049728:	c7 04 24 14 e0 05 08 	movl   $0x805e014,(%esp)
 804972f:	ff d0                	call   *%eax
 8049731:	c9                   	leave  
 8049732:	c3                   	ret    
 8049733:	90                   	nop
 8049734:	90                   	nop
 8049735:	90                   	nop
 8049736:	90                   	nop
 8049737:	90                   	nop
 8049738:	90                   	nop
 8049739:	90                   	nop
 804973a:	90                   	nop
 804973b:	90                   	nop
 804973c:	90                   	nop
 804973d:	90                   	nop
 804973e:	90                   	nop
 804973f:	90                   	nop

08049740 <callSimpleEntryPoint>:
 8049740:	55                   	push   %ebp
 8049741:	89 e5                	mov    %esp,%ebp
 8049743:	83 ec 28             	sub    $0x28,%esp
 8049746:	c7 04 24 48 c7 05 08 	movl   $0x805c748,(%esp)
 804974d:	89 5d f4             	mov    %ebx,-0xc(%ebp)
 8049750:	89 75 f8             	mov    %esi,-0x8(%ebp)
 8049753:	89 7d fc             	mov    %edi,-0x4(%ebp)
 8049756:	ff 15 6c 03 06 08    	call   *0x806036c
 804975c:	85 c0                	test   %eax,%eax
 804975e:	75 38                	jne    8049798 <callSimpleEntryPoint+0x58>
 8049760:	31 f6                	xor    %esi,%esi
 8049762:	31 db                	xor    %ebx,%ebx
 8049764:	bf ff ff ff ff       	mov    $0xffffffff,%edi
 8049769:	89 1c 24             	mov    %ebx,(%esp)
 804976c:	ff 15 50 03 06 08    	call   *0x8060350
 8049772:	89 34 24             	mov    %esi,(%esp)
 8049775:	ff 15 50 03 06 08    	call   *0x8060350
 804977b:	ff 15 a0 03 06 08    	call   *0x80603a0
 8049781:	ff 15 98 03 06 08    	call   *0x8060398
 8049787:	89 f8                	mov    %edi,%eax
 8049789:	8b 5d f4             	mov    -0xc(%ebp),%ebx
 804978c:	8b 75 f8             	mov    -0x8(%ebp),%esi
 804978f:	8b 7d fc             	mov    -0x4(%ebp),%edi
 8049792:	89 ec                	mov    %ebp,%esp
 8049794:	5d                   	pop    %ebp
 8049795:	c3                   	ret    
 8049796:	66 90                	xchg   %ax,%ax
 8049798:	89 04 24             	mov    %eax,(%esp)
 804979b:	31 f6                	xor    %esi,%esi
 804979d:	bf fe ff ff ff       	mov    $0xfffffffe,%edi
 80497a2:	ff 15 90 03 06 08    	call   *0x8060390
 80497a8:	8b 55 08             	mov    0x8(%ebp),%edx
 80497ab:	89 54 24 04          	mov    %edx,0x4(%esp)
 80497af:	89 04 24             	mov    %eax,(%esp)
 80497b2:	ff 15 94 03 06 08    	call   *0x8060394
 80497b8:	85 c0                	test   %eax,%eax
 80497ba:	89 c3                	mov    %eax,%ebx
 80497bc:	74 ab                	je     8049769 <callSimpleEntryPoint+0x29>
 80497be:	c7 44 24 04 22 d3 05 	movl   $0x805d322,0x4(%esp)
 80497c5:	08 
 80497c6:	89 04 24             	mov    %eax,(%esp)
 80497c9:	ff 15 8c 03 06 08    	call   *0x806038c
 80497cf:	85 c0                	test   %eax,%eax
 80497d1:	89 c6                	mov    %eax,%esi
 80497d3:	74 1e                	je     80497f3 <callSimpleEntryPoint+0xb3>
 80497d5:	ff 15 98 03 06 08    	call   *0x8060398
 80497db:	89 34 24             	mov    %esi,(%esp)
 80497de:	ff 15 c8 03 06 08    	call   *0x80603c8
 80497e4:	8b 55 0c             	mov    0xc(%ebp),%edx
 80497e7:	89 02                	mov    %eax,(%edx)
 80497e9:	ff 15 9c 03 06 08    	call   *0x806039c
 80497ef:	85 c0                	test   %eax,%eax
 80497f1:	74 08                	je     80497fb <callSimpleEntryPoint+0xbb>
 80497f3:	83 cf ff             	or     $0xffffffff,%edi
 80497f6:	e9 6e ff ff ff       	jmp    8049769 <callSimpleEntryPoint+0x29>
 80497fb:	89 1c 24             	mov    %ebx,(%esp)
 80497fe:	31 ff                	xor    %edi,%edi
 8049800:	ff 15 50 03 06 08    	call   *0x8060350
 8049806:	89 34 24             	mov    %esi,(%esp)
 8049809:	ff 15 50 03 06 08    	call   *0x8060350
 804980f:	e9 6d ff ff ff       	jmp    8049781 <callSimpleEntryPoint+0x41>
 8049814:	8d b6 00 00 00 00    	lea    0x0(%esi),%esi
 804981a:	8d bf 00 00 00 00    	lea    0x0(%edi),%edi

08049820 <pyi_launch_initialize>:
 8049820:	55                   	push   %ebp
 8049821:	89 e5                	mov    %esp,%ebp
 8049823:	5d                   	pop    %ebp
 8049824:	c3                   	ret    
 8049825:	8d 74 26 00          	lea    0x0(%esi,%eiz,1),%esi
 8049829:	8d bc 27 00 00 00 00 	lea    0x0(%edi,%eiz,1),%edi

08049830 <pyi_launch_finalize>:
 8049830:	55                   	push   %ebp
 8049831:	89 e5                	mov    %esp,%ebp
 8049833:	83 ec 08             	sub    $0x8,%esp
 8049836:	c9                   	leave  
 8049837:	e9 c4 07 00 00       	jmp    804a000 <pyi_pylib_finalize>
 804983c:	8d 74 26 00          	lea    0x0(%esi,%eiz,1),%esi

08049840 <pyi_pylib_run_scripts>:
 8049840:	55                   	push   %ebp
 8049841:	89 e5                	mov    %esp,%ebp
 8049843:	57                   	push   %edi
 8049844:	56                   	push   %esi
 8049845:	53                   	push   %ebx
 8049846:	81 ec 2c 10 00 00    	sub    $0x102c,%esp
 804984c:	8b 75 08             	mov    0x8(%ebp),%esi
 804984f:	8b 5e 08             	mov    0x8(%esi),%ebx
 8049852:	c7 04 24 48 c7 05 08 	movl   $0x805c748,(%esp)
 8049859:	ff 15 6c 03 06 08    	call   *0x806036c
 804985f:	3b 5e 0c             	cmp    0xc(%esi),%ebx
 8049862:	89 85 e0 ef ff ff    	mov    %eax,-0x1020(%ebp)
 8049868:	0f 83 0a 01 00 00    	jae    8049978 <pyi_pylib_run_scripts+0x138>
 804986e:	8d bd e8 ef ff ff    	lea    -0x1018(%ebp),%edi
 8049874:	eb 19                	jmp    804988f <pyi_pylib_run_scripts+0x4f>
 8049876:	66 90                	xchg   %ax,%ax
 8049878:	89 5c 24 04          	mov    %ebx,0x4(%esp)
 804987c:	89 34 24             	mov    %esi,(%esp)
 804987f:	e8 4c 1d 00 00       	call   804b5d0 <pyi_arch_increment_toc_ptr>
 8049884:	39 46 0c             	cmp    %eax,0xc(%esi)
 8049887:	89 c3                	mov    %eax,%ebx
 8049889:	0f 86 e9 00 00 00    	jbe    8049978 <pyi_pylib_run_scripts+0x138>
 804988f:	80 7b 11 73          	cmpb   $0x73,0x11(%ebx)
 8049893:	75 e3                	jne    8049878 <pyi_pylib_run_scripts+0x38>
 8049895:	89 5c 24 04          	mov    %ebx,0x4(%esp)
 8049899:	89 34 24             	mov    %esi,(%esp)
 804989c:	e8 6f 1f 00 00       	call   804b810 <pyi_arch_extract>
 80498a1:	89 3c 24             	mov    %edi,(%esp)
 80498a4:	89 85 e4 ef ff ff    	mov    %eax,-0x101c(%ebp)
 80498aa:	8d 43 12             	lea    0x12(%ebx),%eax
 80498ad:	89 44 24 04          	mov    %eax,0x4(%esp)
 80498b1:	e8 ae fb ff ff       	call   8049464 <strcpy@plt>
 80498b6:	89 f9                	mov    %edi,%ecx
 80498b8:	8b 11                	mov    (%ecx),%edx
 80498ba:	83 c1 04             	add    $0x4,%ecx
 80498bd:	8d 82 ff fe fe fe    	lea    -0x1010101(%edx),%eax
 80498c3:	f7 d2                	not    %edx
 80498c5:	21 d0                	and    %edx,%eax
 80498c7:	25 80 80 80 80       	and    $0x80808080,%eax
 80498cc:	74 ea                	je     80498b8 <pyi_pylib_run_scripts+0x78>
 80498ce:	a9 80 80 00 00       	test   $0x8080,%eax
 80498d3:	75 06                	jne    80498db <pyi_pylib_run_scripts+0x9b>
 80498d5:	c1 e8 10             	shr    $0x10,%eax
 80498d8:	83 c1 02             	add    $0x2,%ecx
 80498db:	00 c0                	add    %al,%al
 80498dd:	89 fa                	mov    %edi,%edx
 80498df:	83 d9 03             	sbb    $0x3,%ecx
 80498e2:	c7 01 2e 70 79 00    	movl   $0x79702e,(%ecx)
 80498e8:	8b 0a                	mov    (%edx),%ecx
 80498ea:	83 c2 04             	add    $0x4,%edx
 80498ed:	8d 81 ff fe fe fe    	lea    -0x1010101(%ecx),%eax
 80498f3:	f7 d1                	not    %ecx
 80498f5:	21 c8                	and    %ecx,%eax
 80498f7:	25 80 80 80 80       	and    $0x80808080,%eax
 80498fc:	74 ea                	je     80498e8 <pyi_pylib_run_scripts+0xa8>
 80498fe:	a9 80 80 00 00       	test   $0x8080,%eax
 8049903:	75 06                	jne    804990b <pyi_pylib_run_scripts+0xcb>
 8049905:	c1 e8 10             	shr    $0x10,%eax
 8049908:	83 c2 02             	add    $0x2,%edx
 804990b:	00 c0                	add    %al,%al
 804990d:	83 da 03             	sbb    $0x3,%edx
 8049910:	29 fa                	sub    %edi,%edx
 8049912:	89 54 24 04          	mov    %edx,0x4(%esp)
 8049916:	89 3c 24             	mov    %edi,(%esp)
 8049919:	ff 15 80 03 06 08    	call   *0x8060380
 804991f:	c7 44 24 04 51 c7 05 	movl   $0x805c751,0x4(%esp)
 8049926:	08 
 8049927:	89 c2                	mov    %eax,%edx
 8049929:	89 44 24 08          	mov    %eax,0x8(%esp)
 804992d:	8b 85 e0 ef ff ff    	mov    -0x1020(%ebp),%eax
 8049933:	89 95 dc ef ff ff    	mov    %edx,-0x1024(%ebp)
 8049939:	89 04 24             	mov    %eax,(%esp)
 804993c:	ff 15 70 03 06 08    	call   *0x8060370
 8049942:	8b 95 dc ef ff ff    	mov    -0x1024(%ebp),%edx
 8049948:	89 14 24             	mov    %edx,(%esp)
 804994b:	ff 15 50 03 06 08    	call   *0x8060350
 8049951:	8b 85 e4 ef ff ff    	mov    -0x101c(%ebp),%eax
 8049957:	89 04 24             	mov    %eax,(%esp)
 804995a:	ff 15 5c 03 06 08    	call   *0x806035c
 8049960:	85 c0                	test   %eax,%eax
 8049962:	75 16                	jne    804997a <pyi_pylib_run_scripts+0x13a>
 8049964:	8b 85 e4 ef ff ff    	mov    -0x101c(%ebp),%eax
 804996a:	89 04 24             	mov    %eax,(%esp)
 804996d:	e8 b2 f9 ff ff       	call   8049324 <free@plt>
 8049972:	e9 01 ff ff ff       	jmp    8049878 <pyi_pylib_run_scripts+0x38>
 8049977:	90                   	nop
 8049978:	31 c0                	xor    %eax,%eax
 804997a:	81 c4 2c 10 00 00    	add    $0x102c,%esp
 8049980:	5b                   	pop    %ebx
 8049981:	5e                   	pop    %esi
 8049982:	5f                   	pop    %edi
 8049983:	5d                   	pop    %ebp
 8049984:	c3                   	ret    
 8049985:	8d 74 26 00          	lea    0x0(%esi,%eiz,1),%esi
 8049989:	8d bc 27 00 00 00 00 	lea    0x0(%edi,%eiz,1),%edi

08049990 <pyi_launch_execute>:
 8049990:	55                   	push   %ebp
 8049991:	89 e5                	mov    %esp,%ebp
 8049993:	83 ec 28             	sub    $0x28,%esp
 8049996:	89 5d f4             	mov    %ebx,-0xc(%ebp)
 8049999:	8b 5d 08             	mov    0x8(%ebp),%ebx
 804999c:	89 75 f8             	mov    %esi,-0x8(%ebp)
 804999f:	8b 75 0c             	mov    0xc(%ebp),%esi
 80499a2:	89 7d fc             	mov    %edi,-0x4(%ebp)
 80499a5:	8b 7d 10             	mov    0x10(%ebp),%edi
 80499a8:	89 1c 24             	mov    %ebx,(%esp)
 80499ab:	e8 f0 0b 00 00       	call   804a5a0 <pyi_pylib_load>
 80499b0:	85 c0                	test   %eax,%eax
 80499b2:	74 14                	je     80499c8 <pyi_launch_execute+0x38>
 80499b4:	8b 5d f4             	mov    -0xc(%ebp),%ebx
 80499b7:	b8 ff ff ff ff       	mov    $0xffffffff,%eax
 80499bc:	8b 75 f8             	mov    -0x8(%ebp),%esi
 80499bf:	8b 7d fc             	mov    -0x4(%ebp),%edi
 80499c2:	89 ec                	mov    %ebp,%esp
 80499c4:	5d                   	pop    %ebp
 80499c5:	c3                   	ret    
 80499c6:	66 90                	xchg   %ax,%ax
 80499c8:	c7 83 6c 40 00 00 01 	movl   $0x1,0x406c(%ebx)
 80499cf:	00 00 00 
 80499d2:	89 7c 24 08          	mov    %edi,0x8(%esp)
 80499d6:	89 74 24 04          	mov    %esi,0x4(%esp)
 80499da:	89 1c 24             	mov    %ebx,(%esp)
 80499dd:	e8 4e 08 00 00       	call   804a230 <pyi_pylib_start_python>
 80499e2:	85 c0                	test   %eax,%eax
 80499e4:	75 ce                	jne    80499b4 <pyi_launch_execute+0x24>
 80499e6:	89 1c 24             	mov    %ebx,(%esp)
 80499e9:	e8 22 07 00 00       	call   804a110 <pyi_pylib_import_modules>
 80499ee:	85 c0                	test   %eax,%eax
 80499f0:	75 c2                	jne    80499b4 <pyi_launch_execute+0x24>
 80499f2:	89 1c 24             	mov    %ebx,(%esp)
 80499f5:	e8 c6 06 00 00       	call   804a0c0 <pyi_pylib_install_zlibs>
 80499fa:	85 c0                	test   %eax,%eax
 80499fc:	75 b6                	jne    80499b4 <pyi_launch_execute+0x24>
 80499fe:	89 5d 08             	mov    %ebx,0x8(%ebp)
 8049a01:	8b 75 f8             	mov    -0x8(%ebp),%esi
 8049a04:	8b 5d f4             	mov    -0xc(%ebp),%ebx
 8049a07:	8b 7d fc             	mov    -0x4(%ebp),%edi
 8049a0a:	89 ec                	mov    %ebp,%esp
 8049a0c:	5d                   	pop    %ebp
 8049a0d:	e9 2e fe ff ff       	jmp    8049840 <pyi_pylib_run_scripts>
 8049a12:	8d b4 26 00 00 00 00 	lea    0x0(%esi,%eiz,1),%esi
 8049a19:	8d bc 27 00 00 00 00 	lea    0x0(%edi,%eiz,1),%edi

08049a20 <pyi_launch_need_to_extract_binaries>:
 8049a20:	55                   	push   %ebp
 8049a21:	89 e5                	mov    %esp,%ebp
 8049a23:	53                   	push   %ebx
 8049a24:	83 ec 14             	sub    $0x14,%esp
 8049a27:	8b 5d 08             	mov    0x8(%ebp),%ebx
 8049a2a:	8b 43 08             	mov    0x8(%ebx),%eax
 8049a2d:	3b 43 0c             	cmp    0xc(%ebx),%eax
 8049a30:	72 26                	jb     8049a58 <pyi_launch_need_to_extract_binaries+0x38>
 8049a32:	eb 3c                	jmp    8049a70 <pyi_launch_need_to_extract_binaries+0x50>
 8049a34:	8d 74 26 00          	lea    0x0(%esi,%eiz,1),%esi
 8049a38:	80 fa 62             	cmp    $0x62,%dl
 8049a3b:	74 24                	je     8049a61 <pyi_launch_need_to_extract_binaries+0x41>
 8049a3d:	80 fa 5a             	cmp    $0x5a,%dl
 8049a40:	74 1f                	je     8049a61 <pyi_launch_need_to_extract_binaries+0x41>
 8049a42:	80 fa 64             	cmp    $0x64,%dl
 8049a45:	74 1a                	je     8049a61 <pyi_launch_need_to_extract_binaries+0x41>
 8049a47:	89 44 24 04          	mov    %eax,0x4(%esp)
 8049a4b:	89 1c 24             	mov    %ebx,(%esp)
 8049a4e:	e8 7d 1b 00 00       	call   804b5d0 <pyi_arch_increment_toc_ptr>
 8049a53:	39 43 0c             	cmp    %eax,0xc(%ebx)
 8049a56:	76 18                	jbe    8049a70 <pyi_launch_need_to_extract_binaries+0x50>
 8049a58:	0f b6 50 11          	movzbl 0x11(%eax),%edx
 8049a5c:	80 fa 78             	cmp    $0x78,%dl
 8049a5f:	75 d7                	jne    8049a38 <pyi_launch_need_to_extract_binaries+0x18>
 8049a61:	83 c4 14             	add    $0x14,%esp
 8049a64:	b8 01 00 00 00       	mov    $0x1,%eax
 8049a69:	5b                   	pop    %ebx
 8049a6a:	5d                   	pop    %ebp
 8049a6b:	c3                   	ret    
 8049a6c:	8d 74 26 00          	lea    0x0(%esi,%eiz,1),%esi
 8049a70:	83 c4 14             	add    $0x14,%esp
 8049a73:	31 c0                	xor    %eax,%eax
 8049a75:	5b                   	pop    %ebx
 8049a76:	5d                   	pop    %ebp
 8049a77:	c3                   	ret    
 8049a78:	90                   	nop
 8049a79:	8d b4 26 00 00 00 00 	lea    0x0(%esi,%eiz,1),%esi

08049a80 <copyDependencyFromDir>:
 8049a80:	55                   	push   %ebp
 8049a81:	89 e5                	mov    %esp,%ebp
 8049a83:	83 ec 28             	sub    $0x28,%esp
 8049a86:	89 04 24             	mov    %eax,(%esp)
 8049a89:	89 5d f4             	mov    %ebx,-0xc(%ebp)
 8049a8c:	89 c3                	mov    %eax,%ebx
 8049a8e:	89 75 f8             	mov    %esi,-0x8(%ebp)
 8049a91:	89 d6                	mov    %edx,%esi
 8049a93:	89 7d fc             	mov    %edi,-0x4(%ebp)
 8049a96:	89 cf                	mov    %ecx,%edi
 8049a98:	e8 c3 11 00 00       	call   804ac60 <pyi_create_temp_path>
 8049a9d:	83 f8 ff             	cmp    $0xffffffff,%eax
 8049aa0:	75 16                	jne    8049ab8 <copyDependencyFromDir+0x38>
 8049aa2:	b8 ff ff ff ff       	mov    $0xffffffff,%eax
 8049aa7:	8b 5d f4             	mov    -0xc(%ebp),%ebx
 8049aaa:	8b 75 f8             	mov    -0x8(%ebp),%esi
 8049aad:	8b 7d fc             	mov    -0x4(%ebp),%edi
 8049ab0:	89 ec                	mov    %ebp,%esp
 8049ab2:	5d                   	pop    %ebp
 8049ab3:	c3                   	ret    
 8049ab4:	8d 74 26 00          	lea    0x0(%esi,%eiz,1),%esi
 8049ab8:	81 c3 68 20 00 00    	add    $0x2068,%ebx
 8049abe:	89 7c 24 08          	mov    %edi,0x8(%esp)
 8049ac2:	89 5c 24 04          	mov    %ebx,0x4(%esp)
 8049ac6:	89 34 24             	mov    %esi,(%esp)
 8049ac9:	e8 c2 0d 00 00       	call   804a890 <pyi_copy_file>
 8049ace:	89 c2                	mov    %eax,%edx
 8049ad0:	31 c0                	xor    %eax,%eax
 8049ad2:	83 fa ff             	cmp    $0xffffffff,%edx
 8049ad5:	75 d0                	jne    8049aa7 <copyDependencyFromDir+0x27>
 8049ad7:	eb c9                	jmp    8049aa2 <copyDependencyFromDir+0x22>
 8049ad9:	8d b4 26 00 00 00 00 	lea    0x0(%esi,%eiz,1),%esi

08049ae0 <checkFile>:
 8049ae0:	55                   	push   %ebp
 8049ae1:	89 e5                	mov    %esp,%ebp
 8049ae3:	53                   	push   %ebx
 8049ae4:	83 ec 74             	sub    $0x74,%esp
 8049ae7:	8b 5d 08             	mov    0x8(%ebp),%ebx
 8049aea:	8d 45 10             	lea    0x10(%ebp),%eax
 8049aed:	89 44 24 0c          	mov    %eax,0xc(%esp)
 8049af1:	8b 45 0c             	mov    0xc(%ebp),%eax
 8049af4:	c7 44 24 04 00 10 00 	movl   $0x1000,0x4(%esp)
 8049afb:	00 
 8049afc:	89 1c 24             	mov    %ebx,(%esp)
 8049aff:	89 44 24 08          	mov    %eax,0x8(%esp)
 8049b03:	e8 2c f7 ff ff       	call   8049234 <vsnprintf@plt>
 8049b08:	8d 45 a0             	lea    -0x60(%ebp),%eax
 8049b0b:	89 1c 24             	mov    %ebx,(%esp)
 8049b0e:	89 44 24 04          	mov    %eax,0x4(%esp)
 8049b12:	e8 89 2b 01 00       	call   805c6a0 <__stat>
 8049b17:	83 c4 74             	add    $0x74,%esp
 8049b1a:	5b                   	pop    %ebx
 8049b1b:	5d                   	pop    %ebp
 8049b1c:	c3                   	ret    
 8049b1d:	8d 76 00             	lea    0x0(%esi),%esi

08049b20 <_extract_dependency>:
 8049b20:	55                   	push   %ebp
 8049b21:	89 e5                	mov    %esp,%ebp
 8049b23:	57                   	push   %edi
 8049b24:	56                   	push   %esi
 8049b25:	89 c6                	mov    %eax,%esi
 8049b27:	53                   	push   %ebx
 8049b28:	81 ec 5c 60 00 00    	sub    $0x605c,%esp
 8049b2e:	8b 00                	mov    (%eax),%eax
 8049b30:	8d 9d e7 9f ff ff    	lea    -0x6019(%ebp),%ebx
 8049b36:	8d bd e8 ef ff ff    	lea    -0x1018(%ebp),%edi
 8049b3c:	89 85 d4 9f ff ff    	mov    %eax,-0x602c(%ebp)
 8049b42:	89 54 24 04          	mov    %edx,0x4(%esp)
 8049b46:	89 1c 24             	mov    %ebx,(%esp)
 8049b49:	e8 16 f9 ff ff       	call   8049464 <strcpy@plt>
 8049b4e:	89 1c 24             	mov    %ebx,(%esp)
 8049b51:	8d 9d e8 df ff ff    	lea    -0x2018(%ebp),%ebx
 8049b57:	c7 44 24 04 5a c7 05 	movl   $0x805c75a,0x4(%esp)
 8049b5e:	08 
 8049b5f:	e8 00 fa ff ff       	call   8049564 <strtok@plt>
 8049b64:	89 3c 24             	mov    %edi,(%esp)
 8049b67:	89 44 24 04          	mov    %eax,0x4(%esp)
 8049b6b:	e8 f4 f8 ff ff       	call   8049464 <strcpy@plt>
 8049b70:	c7 44 24 04 5a c7 05 	movl   $0x805c75a,0x4(%esp)
 8049b77:	08 
 8049b78:	c7 04 24 00 00 00 00 	movl   $0x0,(%esp)
 8049b7f:	e8 e0 f9 ff ff       	call   8049564 <strtok@plt>
 8049b84:	89 1c 24             	mov    %ebx,(%esp)
 8049b87:	89 44 24 04          	mov    %eax,0x4(%esp)
 8049b8b:	e8 d4 f8 ff ff       	call   8049464 <strcpy@plt>
 8049b90:	80 bd e8 ef ff ff 00 	cmpb   $0x0,-0x1018(%ebp)
 8049b97:	75 17                	jne    8049bb0 <_extract_dependency+0x90>
 8049b99:	b8 ff ff ff ff       	mov    $0xffffffff,%eax
 8049b9e:	81 c4 5c 60 00 00    	add    $0x605c,%esp
 8049ba4:	5b                   	pop    %ebx
 8049ba5:	5e                   	pop    %esi
 8049ba6:	5f                   	pop    %edi
 8049ba7:	5d                   	pop    %ebp
 8049ba8:	c3                   	ret    
 8049ba9:	8d b4 26 00 00 00 00 	lea    0x0(%esi,%eiz,1),%esi
 8049bb0:	80 bd e8 df ff ff 00 	cmpb   $0x0,-0x2018(%ebp)
 8049bb7:	74 e0                	je     8049b99 <_extract_dependency+0x79>
 8049bb9:	8d 95 e8 af ff ff    	lea    -0x5018(%ebp),%edx
 8049bbf:	89 14 24             	mov    %edx,(%esp)
 8049bc2:	89 7c 24 04          	mov    %edi,0x4(%esp)
 8049bc6:	89 95 cc 9f ff ff    	mov    %edx,-0x6034(%ebp)
 8049bcc:	e8 8f 22 01 00       	call   805be60 <pyi_path_dirname>
 8049bd1:	8b 85 d4 9f ff ff    	mov    -0x602c(%ebp),%eax
 8049bd7:	05 68 10 00 00       	add    $0x1068,%eax
 8049bdc:	89 85 d0 9f ff ff    	mov    %eax,-0x6030(%ebp)
 8049be2:	89 5c 24 18          	mov    %ebx,0x18(%esp)
 8049be6:	c7 44 24 14 6d c7 05 	movl   $0x805c76d,0x14(%esp)
 8049bed:	08 
 8049bee:	8b 95 cc 9f ff ff    	mov    -0x6034(%ebp),%edx
 8049bf4:	89 44 24 08          	mov    %eax,0x8(%esp)
 8049bf8:	8d 85 e8 cf ff ff    	lea    -0x3018(%ebp),%eax
 8049bfe:	c7 44 24 0c 6d c7 05 	movl   $0x805c76d,0xc(%esp)
 8049c05:	08 
 8049c06:	c7 44 24 04 76 c7 05 	movl   $0x805c776,0x4(%esp)
 8049c0d:	08 
 8049c0e:	89 54 24 10          	mov    %edx,0x10(%esp)
 8049c12:	89 04 24             	mov    %eax,(%esp)
 8049c15:	e8 c6 fe ff ff       	call   8049ae0 <checkFile>
 8049c1a:	8b 95 cc 9f ff ff    	mov    -0x6034(%ebp),%edx
 8049c20:	85 c0                	test   %eax,%eax
 8049c22:	75 2c                	jne    8049c50 <_extract_dependency+0x130>
 8049c24:	8b 85 d4 9f ff ff    	mov    -0x602c(%ebp),%eax
 8049c2a:	89 d9                	mov    %ebx,%ecx
 8049c2c:	8d 95 e8 cf ff ff    	lea    -0x3018(%ebp),%edx
 8049c32:	e8 49 fe ff ff       	call   8049a80 <copyDependencyFromDir>
 8049c37:	83 f8 ff             	cmp    $0xffffffff,%eax
 8049c3a:	0f 84 32 02 00 00    	je     8049e72 <_extract_dependency+0x352>
 8049c40:	31 c0                	xor    %eax,%eax
 8049c42:	81 c4 5c 60 00 00    	add    $0x605c,%esp
 8049c48:	5b                   	pop    %ebx
 8049c49:	5e                   	pop    %esi
 8049c4a:	5f                   	pop    %edi
 8049c4b:	5d                   	pop    %ebp
 8049c4c:	c3                   	ret    
 8049c4d:	8d 76 00             	lea    0x0(%esi),%esi
 8049c50:	89 5c 24 20          	mov    %ebx,0x20(%esp)
 8049c54:	8d 85 e8 cf ff ff    	lea    -0x3018(%ebp),%eax
 8049c5a:	c7 44 24 1c 6d c7 05 	movl   $0x805c76d,0x1c(%esp)
 8049c61:	08 
 8049c62:	89 54 24 18          	mov    %edx,0x18(%esp)
 8049c66:	c7 44 24 14 6d c7 05 	movl   $0x805c76d,0x14(%esp)
 8049c6d:	08 
 8049c6e:	c7 44 24 10 6f c7 05 	movl   $0x805c76f,0x10(%esp)
 8049c75:	08 
 8049c76:	c7 44 24 0c 6d c7 05 	movl   $0x805c76d,0xc(%esp)
 8049c7d:	08 
 8049c7e:	8b 95 d0 9f ff ff    	mov    -0x6030(%ebp),%edx
 8049c84:	c7 44 24 04 72 c7 05 	movl   $0x805c772,0x4(%esp)
 8049c8b:	08 
 8049c8c:	89 04 24             	mov    %eax,(%esp)
 8049c8f:	89 54 24 08          	mov    %edx,0x8(%esp)
 8049c93:	e8 48 fe ff ff       	call   8049ae0 <checkFile>
 8049c98:	85 c0                	test   %eax,%eax
 8049c9a:	74 88                	je     8049c24 <_extract_dependency+0x104>
 8049c9c:	89 7c 24 10          	mov    %edi,0x10(%esp)
 8049ca0:	8d 85 e8 bf ff ff    	lea    -0x4018(%ebp),%eax
 8049ca6:	c7 44 24 0c 6d c7 05 	movl   $0x805c76d,0xc(%esp)
 8049cad:	08 
 8049cae:	8b 95 d0 9f ff ff    	mov    -0x6030(%ebp),%edx
 8049cb4:	c7 44 24 04 81 c7 05 	movl   $0x805c781,0x4(%esp)
 8049cbb:	08 
 8049cbc:	89 04 24             	mov    %eax,(%esp)
 8049cbf:	89 54 24 08          	mov    %edx,0x8(%esp)
 8049cc3:	e8 18 fe ff ff       	call   8049ae0 <checkFile>
 8049cc8:	85 c0                	test   %eax,%eax
 8049cca:	74 34                	je     8049d00 <_extract_dependency+0x1e0>
 8049ccc:	89 7c 24 10          	mov    %edi,0x10(%esp)
 8049cd0:	8d 85 e8 bf ff ff    	lea    -0x4018(%ebp),%eax
 8049cd6:	c7 44 24 0c 6d c7 05 	movl   $0x805c76d,0xc(%esp)
 8049cdd:	08 
 8049cde:	8b 95 d0 9f ff ff    	mov    -0x6030(%ebp),%edx
 8049ce4:	c7 44 24 04 8c c7 05 	movl   $0x805c78c,0x4(%esp)
 8049ceb:	08 
 8049cec:	89 04 24             	mov    %eax,(%esp)
 8049cef:	89 54 24 08          	mov    %edx,0x8(%esp)
 8049cf3:	e8 e8 fd ff ff       	call   8049ae0 <checkFile>
 8049cf8:	85 c0                	test   %eax,%eax
 8049cfa:	0f 85 90 01 00 00    	jne    8049e90 <_extract_dependency+0x370>
 8049d00:	8b 06                	mov    (%esi),%eax
 8049d02:	89 04 24             	mov    %eax,(%esp)
 8049d05:	e8 56 0f 00 00       	call   804ac60 <pyi_create_temp_path>
 8049d0a:	83 f8 ff             	cmp    $0xffffffff,%eax
 8049d0d:	0f 84 ed 01 00 00    	je     8049f00 <_extract_dependency+0x3e0>
 8049d13:	8b 7e 04             	mov    0x4(%esi),%edi
 8049d16:	8d 4e 04             	lea    0x4(%esi),%ecx
 8049d19:	85 ff                	test   %edi,%edi
 8049d1b:	0f 84 95 00 00 00    	je     8049db6 <_extract_dependency+0x296>
 8049d21:	8d 56 08             	lea    0x8(%esi),%edx
 8049d24:	89 b5 d4 9f ff ff    	mov    %esi,-0x602c(%ebp)
 8049d2a:	89 d6                	mov    %edx,%esi
 8049d2c:	eb 0d                	jmp    8049d3b <_extract_dependency+0x21b>
 8049d2e:	66 90                	xchg   %ax,%ax
 8049d30:	8b 3e                	mov    (%esi),%edi
 8049d32:	89 f1                	mov    %esi,%ecx
 8049d34:	83 c6 04             	add    $0x4,%esi
 8049d37:	85 ff                	test   %edi,%edi
 8049d39:	74 75                	je     8049db0 <_extract_dependency+0x290>
 8049d3b:	8d 47 68             	lea    0x68(%edi),%eax
 8049d3e:	8d 95 e8 bf ff ff    	lea    -0x4018(%ebp),%edx
 8049d44:	89 54 24 04          	mov    %edx,0x4(%esp)
 8049d48:	89 04 24             	mov    %eax,(%esp)
 8049d4b:	e8 e4 f8 ff ff       	call   8049634 <strcmp@plt>
 8049d50:	85 c0                	test   %eax,%eax
 8049d52:	75 dc                	jne    8049d30 <_extract_dependency+0x210>
 8049d54:	85 ff                	test   %edi,%edi
 8049d56:	0f 84 a4 01 00 00    	je     8049f00 <_extract_dependency+0x3e0>
 8049d5c:	8b 77 08             	mov    0x8(%edi),%esi
 8049d5f:	3b 77 0c             	cmp    0xc(%edi),%esi
 8049d62:	0f 83 d8 fe ff ff    	jae    8049c40 <_extract_dependency+0x120>
 8049d68:	8d 46 12             	lea    0x12(%esi),%eax
 8049d6b:	89 5c 24 04          	mov    %ebx,0x4(%esp)
 8049d6f:	89 04 24             	mov    %eax,(%esp)
 8049d72:	e8 bd f8 ff ff       	call   8049634 <strcmp@plt>
 8049d77:	85 c0                	test   %eax,%eax
 8049d79:	75 14                	jne    8049d8f <_extract_dependency+0x26f>
 8049d7b:	89 74 24 04          	mov    %esi,0x4(%esp)
 8049d7f:	89 3c 24             	mov    %edi,(%esp)
 8049d82:	e8 79 1c 00 00       	call   804ba00 <pyi_arch_extract2fs>
 8049d87:	85 c0                	test   %eax,%eax
 8049d89:	0f 85 c1 00 00 00    	jne    8049e50 <_extract_dependency+0x330>
 8049d8f:	89 74 24 04          	mov    %esi,0x4(%esp)
 8049d93:	89 3c 24             	mov    %edi,(%esp)
 8049d96:	e8 35 18 00 00       	call   804b5d0 <pyi_arch_increment_toc_ptr>
 8049d9b:	3b 47 0c             	cmp    0xc(%edi),%eax
 8049d9e:	89 c6                	mov    %eax,%esi
 8049da0:	72 c6                	jb     8049d68 <_extract_dependency+0x248>
 8049da2:	31 c0                	xor    %eax,%eax
 8049da4:	e9 99 fe ff ff       	jmp    8049c42 <_extract_dependency+0x122>
 8049da9:	8d b4 26 00 00 00 00 	lea    0x0(%esi,%eiz,1),%esi
 8049db0:	8b b5 d4 9f ff ff    	mov    -0x602c(%ebp),%esi
 8049db6:	c7 04 24 70 40 00 00 	movl   $0x4070,(%esp)
 8049dbd:	89 8d cc 9f ff ff    	mov    %ecx,-0x6034(%ebp)
 8049dc3:	e8 5c f7 ff ff       	call   8049524 <malloc@plt>
 8049dc8:	8b 8d cc 9f ff ff    	mov    -0x6034(%ebp),%ecx
 8049dce:	85 c0                	test   %eax,%eax
 8049dd0:	89 c7                	mov    %eax,%edi
 8049dd2:	0f 84 46 01 00 00    	je     8049f1e <_extract_dependency+0x3fe>
 8049dd8:	8d 85 e8 bf ff ff    	lea    -0x4018(%ebp),%eax
 8049dde:	89 44 24 04          	mov    %eax,0x4(%esp)
 8049de2:	8d 47 68             	lea    0x68(%edi),%eax
 8049de5:	89 04 24             	mov    %eax,(%esp)
 8049de8:	89 8d cc 9f ff ff    	mov    %ecx,-0x6034(%ebp)
 8049dee:	e8 71 f6 ff ff       	call   8049464 <strcpy@plt>
 8049df3:	8b 06                	mov    (%esi),%eax
 8049df5:	05 68 10 00 00       	add    $0x1068,%eax
 8049dfa:	89 44 24 04          	mov    %eax,0x4(%esp)
 8049dfe:	8d 87 68 10 00 00    	lea    0x1068(%edi),%eax
 8049e04:	89 04 24             	mov    %eax,(%esp)
 8049e07:	e8 58 f6 ff ff       	call   8049464 <strcpy@plt>
 8049e0c:	8b 06                	mov    (%esi),%eax
 8049e0e:	05 68 20 00 00       	add    $0x2068,%eax
 8049e13:	89 44 24 04          	mov    %eax,0x4(%esp)
 8049e17:	8d 87 68 20 00 00    	lea    0x2068(%edi),%eax
 8049e1d:	89 04 24             	mov    %eax,(%esp)
 8049e20:	e8 3f f6 ff ff       	call   8049464 <strcpy@plt>
 8049e25:	8b 06                	mov    (%esi),%eax
 8049e27:	8b 80 68 40 00 00    	mov    0x4068(%eax),%eax
 8049e2d:	89 87 68 40 00 00    	mov    %eax,0x4068(%edi)
 8049e33:	89 3c 24             	mov    %edi,(%esp)
 8049e36:	e8 d5 17 00 00       	call   804b610 <pyi_arch_open>
 8049e3b:	8b 8d cc 9f ff ff    	mov    -0x6034(%ebp),%ecx
 8049e41:	85 c0                	test   %eax,%eax
 8049e43:	0f 85 99 00 00 00    	jne    8049ee2 <_extract_dependency+0x3c2>
 8049e49:	89 39                	mov    %edi,(%ecx)
 8049e4b:	e9 0c ff ff ff       	jmp    8049d5c <_extract_dependency+0x23c>
 8049e50:	89 5c 24 04          	mov    %ebx,0x4(%esp)
 8049e54:	c7 04 24 c9 c7 05 08 	movl   $0x805c7c9,(%esp)
 8049e5b:	e8 e0 16 01 00       	call   805b540 <stbprint>
 8049e60:	89 3c 24             	mov    %edi,(%esp)
 8049e63:	e8 bc f4 ff ff       	call   8049324 <free@plt>
 8049e68:	b8 ff ff ff ff       	mov    $0xffffffff,%eax
 8049e6d:	e9 2c fd ff ff       	jmp    8049b9e <_extract_dependency+0x7e>
 8049e72:	89 5c 24 04          	mov    %ebx,0x4(%esp)
 8049e76:	c7 04 24 5c c7 05 08 	movl   $0x805c75c,(%esp)
 8049e7d:	e8 be 16 01 00       	call   805b540 <stbprint>
 8049e82:	b8 ff ff ff ff       	mov    $0xffffffff,%eax
 8049e87:	e9 12 fd ff ff       	jmp    8049b9e <_extract_dependency+0x7e>
 8049e8c:	8d 74 26 00          	lea    0x0(%esi,%eiz,1),%esi
 8049e90:	89 7c 24 10          	mov    %edi,0x10(%esp)
 8049e94:	8d 85 e8 bf ff ff    	lea    -0x4018(%ebp),%eax
 8049e9a:	c7 44 24 0c 6d c7 05 	movl   $0x805c76d,0xc(%esp)
 8049ea1:	08 
 8049ea2:	8b 95 d0 9f ff ff    	mov    -0x6030(%ebp),%edx
 8049ea8:	c7 44 24 04 7a c7 05 	movl   $0x805c77a,0x4(%esp)
 8049eaf:	08 
 8049eb0:	89 04 24             	mov    %eax,(%esp)
 8049eb3:	89 54 24 08          	mov    %edx,0x8(%esp)
 8049eb7:	e8 24 fc ff ff       	call   8049ae0 <checkFile>
 8049ebc:	85 c0                	test   %eax,%eax
 8049ebe:	0f 84 3c fe ff ff    	je     8049d00 <_extract_dependency+0x1e0>
 8049ec4:	8d 95 e8 bf ff ff    	lea    -0x4018(%ebp),%edx
 8049eca:	89 54 24 04          	mov    %edx,0x4(%esp)
 8049ece:	c7 04 24 97 c7 05 08 	movl   $0x805c797,(%esp)
 8049ed5:	e8 66 16 01 00       	call   805b540 <stbprint>
 8049eda:	83 c8 ff             	or     $0xffffffff,%eax
 8049edd:	e9 bc fc ff ff       	jmp    8049b9e <_extract_dependency+0x7e>
 8049ee2:	8d 95 e8 bf ff ff    	lea    -0x4018(%ebp),%edx
 8049ee8:	89 54 24 04          	mov    %edx,0x4(%esp)
 8049eec:	c7 04 24 ae c7 05 08 	movl   $0x805c7ae,(%esp)
 8049ef3:	e8 48 16 01 00       	call   805b540 <stbprint>
 8049ef8:	89 3c 24             	mov    %edi,(%esp)
 8049efb:	e8 24 f4 ff ff       	call   8049324 <free@plt>
 8049f00:	8d 85 e8 bf ff ff    	lea    -0x4018(%ebp),%eax
 8049f06:	89 44 24 04          	mov    %eax,0x4(%esp)
 8049f0a:	c7 04 24 97 c7 05 08 	movl   $0x805c797,(%esp)
 8049f11:	e8 2a 16 01 00       	call   805b540 <stbprint>
 8049f16:	83 c8 ff             	or     $0xffffffff,%eax
 8049f19:	e9 80 fc ff ff       	jmp    8049b9e <_extract_dependency+0x7e>
 8049f1e:	c7 04 24 e0 c7 05 08 	movl   $0x805c7e0,(%esp)
 8049f25:	e8 16 16 01 00       	call   805b540 <stbprint>
 8049f2a:	eb d4                	jmp    8049f00 <_extract_dependency+0x3e0>
 8049f2c:	8d 74 26 00          	lea    0x0(%esi,%eiz,1),%esi

08049f30 <pyi_launch_extract_binaries>:
 8049f30:	55                   	push   %ebp
 8049f31:	b9 14 00 00 00       	mov    $0x14,%ecx
 8049f36:	89 e5                	mov    %esp,%ebp
 8049f38:	57                   	push   %edi
 8049f39:	56                   	push   %esi
 8049f3a:	53                   	push   %ebx
 8049f3b:	8d 45 98             	lea    -0x68(%ebp),%eax
 8049f3e:	83 ec 7c             	sub    $0x7c,%esp
 8049f41:	8b 75 08             	mov    0x8(%ebp),%esi
 8049f44:	89 45 94             	mov    %eax,-0x6c(%ebp)
 8049f47:	8b 7d 94             	mov    -0x6c(%ebp),%edi
 8049f4a:	31 c0                	xor    %eax,%eax
 8049f4c:	8b 5e 08             	mov    0x8(%esi),%ebx
 8049f4f:	f3 ab                	rep stos %eax,%es:(%edi)
 8049f51:	89 75 98             	mov    %esi,-0x68(%ebp)
 8049f54:	3b 5e 0c             	cmp    0xc(%esi),%ebx
 8049f57:	73 30                	jae    8049f89 <pyi_launch_extract_binaries+0x59>
 8049f59:	8d b4 26 00 00 00 00 	lea    0x0(%esi,%eiz,1),%esi
 8049f60:	0f b6 43 11          	movzbl 0x11(%ebx),%eax
 8049f64:	3c 78                	cmp    $0x78,%al
 8049f66:	74 50                	je     8049fb8 <pyi_launch_extract_binaries+0x88>
 8049f68:	3c 62                	cmp    $0x62,%al
 8049f6a:	74 4c                	je     8049fb8 <pyi_launch_extract_binaries+0x88>
 8049f6c:	3c 5a                	cmp    $0x5a,%al
 8049f6e:	66 90                	xchg   %ax,%ax
 8049f70:	74 46                	je     8049fb8 <pyi_launch_extract_binaries+0x88>
 8049f72:	3c 64                	cmp    $0x64,%al
 8049f74:	74 59                	je     8049fcf <pyi_launch_extract_binaries+0x9f>
 8049f76:	89 5c 24 04          	mov    %ebx,0x4(%esp)
 8049f7a:	89 34 24             	mov    %esi,(%esp)
 8049f7d:	e8 4e 16 00 00       	call   804b5d0 <pyi_arch_increment_toc_ptr>
 8049f82:	39 46 0c             	cmp    %eax,0xc(%esi)
 8049f85:	89 c3                	mov    %eax,%ebx
 8049f87:	77 d7                	ja     8049f60 <pyi_launch_extract_binaries+0x30>
 8049f89:	31 f6                	xor    %esi,%esi
 8049f8b:	8b 55 9c             	mov    -0x64(%ebp),%edx
 8049f8e:	85 d2                	test   %edx,%edx
 8049f90:	74 17                	je     8049fa9 <pyi_launch_extract_binaries+0x79>
 8049f92:	8d 5d a0             	lea    -0x60(%ebp),%ebx
 8049f95:	8d 76 00             	lea    0x0(%esi),%esi
 8049f98:	89 14 24             	mov    %edx,(%esp)
 8049f9b:	e8 30 15 00 00       	call   804b4d0 <pyi_arch_status_free_memory>
 8049fa0:	8b 13                	mov    (%ebx),%edx
 8049fa2:	83 c3 04             	add    $0x4,%ebx
 8049fa5:	85 d2                	test   %edx,%edx
 8049fa7:	75 ef                	jne    8049f98 <pyi_launch_extract_binaries+0x68>
 8049fa9:	83 c4 7c             	add    $0x7c,%esp
 8049fac:	89 f0                	mov    %esi,%eax
 8049fae:	5b                   	pop    %ebx
 8049faf:	5e                   	pop    %esi
 8049fb0:	5f                   	pop    %edi
 8049fb1:	5d                   	pop    %ebp
 8049fb2:	c3                   	ret    
 8049fb3:	90                   	nop
 8049fb4:	8d 74 26 00          	lea    0x0(%esi,%eiz,1),%esi
 8049fb8:	89 5c 24 04          	mov    %ebx,0x4(%esp)
 8049fbc:	89 34 24             	mov    %esi,(%esp)
 8049fbf:	e8 3c 1a 00 00       	call   804ba00 <pyi_arch_extract2fs>
 8049fc4:	85 c0                	test   %eax,%eax
 8049fc6:	74 ae                	je     8049f76 <pyi_launch_extract_binaries+0x46>
 8049fc8:	be ff ff ff ff       	mov    $0xffffffff,%esi
 8049fcd:	eb bc                	jmp    8049f8b <pyi_launch_extract_binaries+0x5b>
 8049fcf:	8d 53 12             	lea    0x12(%ebx),%edx
 8049fd2:	8d 45 98             	lea    -0x68(%ebp),%eax
 8049fd5:	e8 46 fb ff ff       	call   8049b20 <_extract_dependency>
 8049fda:	83 f8 ff             	cmp    $0xffffffff,%eax
 8049fdd:	75 97                	jne    8049f76 <pyi_launch_extract_binaries+0x46>
 8049fdf:	90                   	nop
 8049fe0:	eb e6                	jmp    8049fc8 <pyi_launch_extract_binaries+0x98>
 8049fe2:	90                   	nop
 8049fe3:	90                   	nop
 8049fe4:	90                   	nop
 8049fe5:	90                   	nop
 8049fe6:	90                   	nop
 8049fe7:	90                   	nop
 8049fe8:	90                   	nop
 8049fe9:	90                   	nop
 8049fea:	90                   	nop
 8049feb:	90                   	nop
 8049fec:	90                   	nop
 8049fed:	90                   	nop
 8049fee:	90                   	nop
 8049fef:	90                   	nop

08049ff0 <pyi_pylib_attach>:
 8049ff0:	55                   	push   %ebp
 8049ff1:	31 c0                	xor    %eax,%eax
 8049ff3:	89 e5                	mov    %esp,%ebp
 8049ff5:	5d                   	pop    %ebp
 8049ff6:	c3                   	ret    
 8049ff7:	89 f6                	mov    %esi,%esi
 8049ff9:	8d bc 27 00 00 00 00 	lea    0x0(%edi,%eiz,1),%edi

0804a000 <pyi_pylib_finalize>:
 804a000:	55                   	push   %ebp
 804a001:	89 e5                	mov    %esp,%ebp
 804a003:	83 ec 08             	sub    $0x8,%esp
 804a006:	8b 45 08             	mov    0x8(%ebp),%eax
 804a009:	83 b8 6c 40 00 00 01 	cmpl   $0x1,0x406c(%eax)
 804a010:	74 06                	je     804a018 <pyi_pylib_finalize+0x18>
 804a012:	c9                   	leave  
 804a013:	c3                   	ret    
 804a014:	8d 74 26 00          	lea    0x0(%esi,%eiz,1),%esi
 804a018:	a1 48 03 06 08       	mov    0x8060348,%eax
 804a01d:	c9                   	leave  
 804a01e:	ff e0                	jmp    *%eax

0804a020 <pyi_pylib_install_zlib>:
 804a020:	55                   	push   %ebp
 804a021:	89 e5                	mov    %esp,%ebp
 804a023:	83 ec 38             	sub    $0x38,%esp
 804a026:	8b 45 0c             	mov    0xc(%ebp),%eax
 804a029:	89 5d f4             	mov    %ebx,-0xc(%ebp)
 804a02c:	89 75 f8             	mov    %esi,-0x8(%ebp)
 804a02f:	8b 75 08             	mov    0x8(%ebp),%esi
 804a032:	89 7d fc             	mov    %edi,-0x4(%ebp)
 804a035:	8b 40 04             	mov    0x4(%eax),%eax
 804a038:	8b 7e 04             	mov    0x4(%esi),%edi
 804a03b:	83 c6 68             	add    $0x68,%esi
 804a03e:	89 04 24             	mov    %eax,(%esp)
 804a041:	e8 8e f2 ff ff       	call   80492d4 <ntohl@plt>
 804a046:	89 34 24             	mov    %esi,(%esp)
 804a049:	89 45 e4             	mov    %eax,-0x1c(%ebp)
 804a04c:	e8 93 f3 ff ff       	call   80493e4 <strlen@plt>
 804a051:	83 c0 3a             	add    $0x3a,%eax
 804a054:	89 04 24             	mov    %eax,(%esp)
 804a057:	e8 c8 f4 ff ff       	call   8049524 <malloc@plt>
 804a05c:	03 7d e4             	add    -0x1c(%ebp),%edi
 804a05f:	89 74 24 08          	mov    %esi,0x8(%esp)
 804a063:	c7 44 24 04 04 c8 05 	movl   $0x805c804,0x4(%esp)
 804a06a:	08 
 804a06b:	89 7c 24 0c          	mov    %edi,0xc(%esp)
 804a06f:	89 c3                	mov    %eax,%ebx
 804a071:	89 04 24             	mov    %eax,(%esp)
 804a074:	e8 cb f0 ff ff       	call   8049144 <sprintf@plt>
 804a079:	89 1c 24             	mov    %ebx,(%esp)
 804a07c:	ff 15 5c 03 06 08    	call   *0x806035c
 804a082:	85 c0                	test   %eax,%eax
 804a084:	75 1a                	jne    804a0a0 <pyi_pylib_install_zlib+0x80>
 804a086:	89 1c 24             	mov    %ebx,(%esp)
 804a089:	e8 96 f2 ff ff       	call   8049324 <free@plt>
 804a08e:	31 c0                	xor    %eax,%eax
 804a090:	8b 5d f4             	mov    -0xc(%ebp),%ebx
 804a093:	8b 75 f8             	mov    -0x8(%ebp),%esi
 804a096:	8b 7d fc             	mov    -0x4(%ebp),%edi
 804a099:	89 ec                	mov    %ebp,%esp
 804a09b:	5d                   	pop    %ebp
 804a09c:	c3                   	ret    
 804a09d:	8d 76 00             	lea    0x0(%esi),%esi
 804a0a0:	89 5c 24 04          	mov    %ebx,0x4(%esp)
 804a0a4:	c7 04 24 1f c8 05 08 	movl   $0x805c81f,(%esp)
 804a0ab:	e8 90 14 01 00       	call   805b540 <stbprint>
 804a0b0:	89 1c 24             	mov    %ebx,(%esp)
 804a0b3:	e8 6c f2 ff ff       	call   8049324 <free@plt>
 804a0b8:	b8 ff ff ff ff       	mov    $0xffffffff,%eax
 804a0bd:	eb d1                	jmp    804a090 <pyi_pylib_install_zlib+0x70>
 804a0bf:	90                   	nop

0804a0c0 <pyi_pylib_install_zlibs>:
 804a0c0:	55                   	push   %ebp
 804a0c1:	89 e5                	mov    %esp,%ebp
 804a0c3:	56                   	push   %esi
 804a0c4:	53                   	push   %ebx
 804a0c5:	83 ec 10             	sub    $0x10,%esp
 804a0c8:	8b 75 08             	mov    0x8(%ebp),%esi
 804a0cb:	8b 5e 08             	mov    0x8(%esi),%ebx
 804a0ce:	3b 5e 0c             	cmp    0xc(%esi),%ebx
 804a0d1:	72 18                	jb     804a0eb <pyi_pylib_install_zlibs+0x2b>
 804a0d3:	eb 2b                	jmp    804a100 <pyi_pylib_install_zlibs+0x40>
 804a0d5:	8d 76 00             	lea    0x0(%esi),%esi
 804a0d8:	89 5c 24 04          	mov    %ebx,0x4(%esp)
 804a0dc:	89 34 24             	mov    %esi,(%esp)
 804a0df:	e8 ec 14 00 00       	call   804b5d0 <pyi_arch_increment_toc_ptr>
 804a0e4:	39 46 0c             	cmp    %eax,0xc(%esi)
 804a0e7:	89 c3                	mov    %eax,%ebx
 804a0e9:	76 15                	jbe    804a100 <pyi_pylib_install_zlibs+0x40>
 804a0eb:	80 7b 11 7a          	cmpb   $0x7a,0x11(%ebx)
 804a0ef:	75 e7                	jne    804a0d8 <pyi_pylib_install_zlibs+0x18>
 804a0f1:	89 5c 24 04          	mov    %ebx,0x4(%esp)
 804a0f5:	89 34 24             	mov    %esi,(%esp)
 804a0f8:	e8 23 ff ff ff       	call   804a020 <pyi_pylib_install_zlib>
 804a0fd:	eb d9                	jmp    804a0d8 <pyi_pylib_install_zlibs+0x18>
 804a0ff:	90                   	nop
 804a100:	83 c4 10             	add    $0x10,%esp
 804a103:	31 c0                	xor    %eax,%eax
 804a105:	5b                   	pop    %ebx
 804a106:	5e                   	pop    %esi
 804a107:	5d                   	pop    %ebp
 804a108:	c3                   	ret    
 804a109:	8d b4 26 00 00 00 00 	lea    0x0(%esi,%eiz,1),%esi

0804a110 <pyi_pylib_import_modules>:
 804a110:	55                   	push   %ebp
 804a111:	89 e5                	mov    %esp,%ebp
 804a113:	57                   	push   %edi
 804a114:	56                   	push   %esi
 804a115:	53                   	push   %ebx
 804a116:	83 ec 2c             	sub    $0x2c,%esp
 804a119:	8b 75 08             	mov    0x8(%ebp),%esi
 804a11c:	c7 04 24 35 c8 05 08 	movl   $0x805c835,(%esp)
 804a123:	ff 15 68 03 06 08    	call   *0x8060368
 804a129:	89 04 24             	mov    %eax,(%esp)
 804a12c:	ff 15 90 03 06 08    	call   *0x8060390
 804a132:	c7 44 24 04 3d c8 05 	movl   $0x805c83d,0x4(%esp)
 804a139:	08 
 804a13a:	89 04 24             	mov    %eax,(%esp)
 804a13d:	ff 15 94 03 06 08    	call   *0x8060394
 804a143:	8b 5e 08             	mov    0x8(%esi),%ebx
 804a146:	3b 5e 0c             	cmp    0xc(%esi),%ebx
 804a149:	89 45 e0             	mov    %eax,-0x20(%ebp)
 804a14c:	72 25                	jb     804a173 <pyi_pylib_import_modules+0x63>
 804a14e:	e9 ad 00 00 00       	jmp    804a200 <pyi_pylib_import_modules+0xf0>
 804a153:	90                   	nop
 804a154:	8d 74 26 00          	lea    0x0(%esi,%eiz,1),%esi
 804a158:	3c 6d                	cmp    $0x6d,%al
 804a15a:	74 1f                	je     804a17b <pyi_pylib_import_modules+0x6b>
 804a15c:	89 5c 24 04          	mov    %ebx,0x4(%esp)
 804a160:	89 34 24             	mov    %esi,(%esp)
 804a163:	e8 68 14 00 00       	call   804b5d0 <pyi_arch_increment_toc_ptr>
 804a168:	39 46 0c             	cmp    %eax,0xc(%esi)
 804a16b:	89 c3                	mov    %eax,%ebx
 804a16d:	0f 86 8d 00 00 00    	jbe    804a200 <pyi_pylib_import_modules+0xf0>
 804a173:	0f b6 43 11          	movzbl 0x11(%ebx),%eax
 804a177:	3c 4d                	cmp    $0x4d,%al
 804a179:	75 dd                	jne    804a158 <pyi_pylib_import_modules+0x48>
 804a17b:	89 5c 24 04          	mov    %ebx,0x4(%esp)
 804a17f:	89 34 24             	mov    %esi,(%esp)
 804a182:	e8 89 16 00 00       	call   804b810 <pyi_arch_extract>
 804a187:	89 c7                	mov    %eax,%edi
 804a189:	a1 8c 03 06 08       	mov    0x806038c,%eax
 804a18e:	89 45 e4             	mov    %eax,-0x1c(%ebp)
 804a191:	8b 43 0c             	mov    0xc(%ebx),%eax
 804a194:	89 04 24             	mov    %eax,(%esp)
 804a197:	e8 38 f1 ff ff       	call   80492d4 <ntohl@plt>
 804a19c:	c7 44 24 04 43 c8 05 	movl   $0x805c843,0x4(%esp)
 804a1a3:	08 
 804a1a4:	83 e8 08             	sub    $0x8,%eax
 804a1a7:	89 44 24 0c          	mov    %eax,0xc(%esp)
 804a1ab:	8d 47 08             	lea    0x8(%edi),%eax
 804a1ae:	89 44 24 08          	mov    %eax,0x8(%esp)
 804a1b2:	8b 45 e0             	mov    -0x20(%ebp),%eax
 804a1b5:	89 04 24             	mov    %eax,(%esp)
 804a1b8:	ff 55 e4             	call   *-0x1c(%ebp)
 804a1bb:	8d 53 12             	lea    0x12(%ebx),%edx
 804a1be:	89 14 24             	mov    %edx,(%esp)
 804a1c1:	89 55 dc             	mov    %edx,-0x24(%ebp)
 804a1c4:	89 44 24 04          	mov    %eax,0x4(%esp)
 804a1c8:	ff 15 58 03 06 08    	call   *0x8060358
 804a1ce:	8b 55 dc             	mov    -0x24(%ebp),%edx
 804a1d1:	85 c0                	test   %eax,%eax
 804a1d3:	74 3b                	je     804a210 <pyi_pylib_import_modules+0x100>
 804a1d5:	ff 15 9c 03 06 08    	call   *0x806039c
 804a1db:	85 c0                	test   %eax,%eax
 804a1dd:	74 0d                	je     804a1ec <pyi_pylib_import_modules+0xdc>
 804a1df:	90                   	nop
 804a1e0:	ff 15 a0 03 06 08    	call   *0x80603a0
 804a1e6:	ff 15 98 03 06 08    	call   *0x8060398
 804a1ec:	89 3c 24             	mov    %edi,(%esp)
 804a1ef:	e8 30 f1 ff ff       	call   8049324 <free@plt>
 804a1f4:	e9 63 ff ff ff       	jmp    804a15c <pyi_pylib_import_modules+0x4c>
 804a1f9:	8d b4 26 00 00 00 00 	lea    0x0(%esi,%eiz,1),%esi
 804a200:	83 c4 2c             	add    $0x2c,%esp
 804a203:	31 c0                	xor    %eax,%eax
 804a205:	5b                   	pop    %ebx
 804a206:	5e                   	pop    %esi
 804a207:	5f                   	pop    %edi
 804a208:	5d                   	pop    %ebp
 804a209:	c3                   	ret    
 804a20a:	8d b6 00 00 00 00    	lea    0x0(%esi),%esi
 804a210:	89 54 24 04          	mov    %edx,0x4(%esp)
 804a214:	c7 04 24 46 c8 05 08 	movl   $0x805c846,(%esp)
 804a21b:	e8 20 13 01 00       	call   805b540 <stbprint>
 804a220:	eb b3                	jmp    804a1d5 <pyi_pylib_import_modules+0xc5>
 804a222:	8d b4 26 00 00 00 00 	lea    0x0(%esi,%eiz,1),%esi
 804a229:	8d bc 27 00 00 00 00 	lea    0x0(%edi,%eiz,1),%edi

0804a230 <pyi_pylib_start_python>:
 804a230:	55                   	push   %ebp
 804a231:	89 e5                	mov    %esp,%ebp
 804a233:	57                   	push   %edi
 804a234:	56                   	push   %esi
 804a235:	53                   	push   %ebx
 804a236:	81 ec 8c 20 00 00    	sub    $0x208c,%esp
 804a23c:	8b 5d 08             	mov    0x8(%ebp),%ebx
 804a23f:	8b 75 0c             	mov    0xc(%ebp),%esi
 804a242:	8b 7d 10             	mov    0x10(%ebp),%edi
 804a245:	c7 04 24 20 e3 05 08 	movl   $0x805e320,(%esp)
 804a24c:	8d 93 68 30 00 00    	lea    0x3068(%ebx),%edx
 804a252:	89 54 24 04          	mov    %edx,0x4(%esp)
 804a256:	89 95 80 df ff ff    	mov    %edx,-0x2080(%ebp)
 804a25c:	e8 03 f2 ff ff       	call   8049464 <strcpy@plt>
 804a261:	c7 44 24 04 20 e3 05 	movl   $0x805e320,0x4(%esp)
 804a268:	08 
 804a269:	c7 04 24 57 c8 05 08 	movl   $0x805c857,(%esp)
 804a270:	e8 3b 09 00 00       	call   804abb0 <pyi_setenv>
 804a275:	c7 04 24 62 c8 05 08 	movl   $0x805c862,(%esp)
 804a27c:	e8 1f 09 00 00       	call   804aba0 <pyi_unsetenv>
 804a281:	8b 95 80 df ff ff    	mov    -0x2080(%ebp),%edx
 804a287:	c7 04 24 20 e3 05 08 	movl   $0x805e320,(%esp)
 804a28e:	89 54 24 04          	mov    %edx,0x4(%esp)
 804a292:	e8 cd f1 ff ff       	call   8049464 <strcpy@plt>
 804a297:	c7 04 24 20 e3 05 08 	movl   $0x805e320,(%esp)
 804a29e:	ff 15 54 03 06 08    	call   *0x8060354
 804a2a4:	a1 38 03 06 08       	mov    0x8060338,%eax
 804a2a9:	c7 00 01 00 00 00    	movl   $0x1,(%eax)
 804a2af:	a1 34 03 06 08       	mov    0x8060334,%eax
 804a2b4:	c7 00 01 00 00 00    	movl   $0x1,(%eax)
 804a2ba:	8b 43 08             	mov    0x8(%ebx),%eax
 804a2bd:	3b 43 0c             	cmp    0xc(%ebx),%eax
 804a2c0:	0f 83 a5 00 00 00    	jae    804a36b <pyi_pylib_start_python+0x13b>
 804a2c6:	c7 85 84 df ff ff 00 	movl   $0x0,-0x207c(%ebp)
 804a2cd:	00 00 00 
 804a2d0:	eb 17                	jmp    804a2e9 <pyi_pylib_start_python+0xb9>
 804a2d2:	8d b6 00 00 00 00    	lea    0x0(%esi),%esi
 804a2d8:	89 44 24 04          	mov    %eax,0x4(%esp)
 804a2dc:	89 1c 24             	mov    %ebx,(%esp)
 804a2df:	e8 ec 12 00 00       	call   804b5d0 <pyi_arch_increment_toc_ptr>
 804a2e4:	3b 43 0c             	cmp    0xc(%ebx),%eax
 804a2e7:	73 1f                	jae    804a308 <pyi_pylib_start_python+0xd8>
 804a2e9:	80 78 11 6f          	cmpb   $0x6f,0x11(%eax)
 804a2ed:	75 e9                	jne    804a2d8 <pyi_pylib_start_python+0xa8>
 804a2ef:	0f b6 50 12          	movzbl 0x12(%eax),%edx
 804a2f3:	83 ea 4f             	sub    $0x4f,%edx
 804a2f6:	80 fa 27             	cmp    $0x27,%dl
 804a2f9:	77 dd                	ja     804a2d8 <pyi_pylib_start_python+0xa8>
 804a2fb:	0f b6 d2             	movzbl %dl,%edx
 804a2fe:	ff 24 95 f4 c8 05 08 	jmp    *0x805c8f4(,%edx,4)
 804a305:	8d 76 00             	lea    0x0(%esi),%esi
 804a308:	8b 85 84 df ff ff    	mov    -0x207c(%ebp),%eax
 804a30e:	85 c0                	test   %eax,%eax
 804a310:	74 59                	je     804a36b <pyi_pylib_start_python+0x13b>
 804a312:	a1 0c e3 05 08       	mov    0x805e30c,%eax
 804a317:	89 04 24             	mov    %eax,(%esp)
 804a31a:	e8 25 f0 ff ff       	call   8049344 <fflush@plt>
 804a31f:	a1 00 e3 05 08       	mov    0x805e300,%eax
 804a324:	89 04 24             	mov    %eax,(%esp)
 804a327:	e8 18 f0 ff ff       	call   8049344 <fflush@plt>
 804a32c:	a1 08 e3 05 08       	mov    0x805e308,%eax
 804a331:	c7 44 24 04 00 00 00 	movl   $0x0,0x4(%esp)
 804a338:	00 
 804a339:	89 04 24             	mov    %eax,(%esp)
 804a33c:	e8 43 ee ff ff       	call   8049184 <setbuf@plt>
 804a341:	a1 0c e3 05 08       	mov    0x805e30c,%eax
 804a346:	c7 44 24 04 00 00 00 	movl   $0x0,0x4(%esp)
 804a34d:	00 
 804a34e:	89 04 24             	mov    %eax,(%esp)
 804a351:	e8 2e ee ff ff       	call   8049184 <setbuf@plt>
 804a356:	a1 00 e3 05 08       	mov    0x805e300,%eax
 804a35b:	c7 44 24 04 00 00 00 	movl   $0x0,0x4(%esp)
 804a362:	00 
 804a363:	89 04 24             	mov    %eax,(%esp)
 804a366:	e8 19 ee ff ff       	call   8049184 <setbuf@plt>
 804a36b:	8d 43 68             	lea    0x68(%ebx),%eax
 804a36e:	89 85 84 df ff ff    	mov    %eax,-0x207c(%ebp)
 804a374:	89 04 24             	mov    %eax,(%esp)
 804a377:	ff 15 64 03 06 08    	call   *0x8060364
 804a37d:	ff 15 44 03 06 08    	call   *0x8060344
 804a383:	c7 04 24 6d c8 05 08 	movl   $0x805c86d,(%esp)
 804a38a:	ff 15 5c 03 06 08    	call   *0x806035c
 804a390:	c7 04 24 79 c8 05 08 	movl   $0x805c879,(%esp)
 804a397:	ff 15 5c 03 06 08    	call   *0x806035c
 804a39d:	8d 95 e7 ef ff ff    	lea    -0x1019(%ebp),%edx
 804a3a3:	80 bb 68 20 00 00 00 	cmpb   $0x0,0x2068(%ebx)
 804a3aa:	0f 85 80 01 00 00    	jne    804a530 <pyi_pylib_start_python+0x300>
 804a3b0:	81 c3 68 10 00 00    	add    $0x1068,%ebx
 804a3b6:	89 5c 24 04          	mov    %ebx,0x4(%esp)
 804a3ba:	89 14 24             	mov    %edx,(%esp)
 804a3bd:	89 95 80 df ff ff    	mov    %edx,-0x2080(%ebp)
 804a3c3:	e8 9c f0 ff ff       	call   8049464 <strcpy@plt>
 804a3c8:	8b 95 80 df ff ff    	mov    -0x2080(%ebp),%edx
 804a3ce:	8d 85 96 df ff ff    	lea    -0x206a(%ebp),%eax
 804a3d4:	c7 44 24 04 8a c8 05 	movl   $0x805c88a,0x4(%esp)
 804a3db:	08 
 804a3dc:	89 04 24             	mov    %eax,(%esp)
 804a3df:	89 54 24 08          	mov    %edx,0x8(%esp)
 804a3e3:	e8 5c ed ff ff       	call   8049144 <sprintf@plt>
 804a3e8:	8d 85 96 df ff ff    	lea    -0x206a(%ebp),%eax
 804a3ee:	89 04 24             	mov    %eax,(%esp)
 804a3f1:	ff 15 5c 03 06 08    	call   *0x806035c
 804a3f7:	c7 04 24 00 00 00 00 	movl   $0x0,(%esp)
 804a3fe:	ff 15 74 03 06 08    	call   *0x8060374
 804a404:	c7 04 24 55 c8 05 08 	movl   $0x805c855,(%esp)
 804a40b:	89 c3                	mov    %eax,%ebx
 804a40d:	8b 85 84 df ff ff    	mov    -0x207c(%ebp),%eax
 804a413:	89 44 24 04          	mov    %eax,0x4(%esp)
 804a417:	ff 15 7c 03 06 08    	call   *0x806037c
 804a41d:	89 1c 24             	mov    %ebx,(%esp)
 804a420:	89 44 24 04          	mov    %eax,0x4(%esp)
 804a424:	ff 15 78 03 06 08    	call   *0x8060378
 804a42a:	83 fe 01             	cmp    $0x1,%esi
 804a42d:	7e 45                	jle    804a474 <pyi_pylib_start_python+0x244>
 804a42f:	ba 01 00 00 00       	mov    $0x1,%edx
 804a434:	89 f8                	mov    %edi,%eax
 804a436:	89 f7                	mov    %esi,%edi
 804a438:	89 d6                	mov    %edx,%esi
 804a43a:	89 c2                	mov    %eax,%edx
 804a43c:	8d 74 26 00          	lea    0x0(%esi,%eiz,1),%esi
 804a440:	8b 04 b2             	mov    (%edx,%esi,4),%eax
 804a443:	83 c6 01             	add    $0x1,%esi
 804a446:	89 95 80 df ff ff    	mov    %edx,-0x2080(%ebp)
 804a44c:	c7 04 24 55 c8 05 08 	movl   $0x805c855,(%esp)
 804a453:	89 44 24 04          	mov    %eax,0x4(%esp)
 804a457:	ff 15 7c 03 06 08    	call   *0x806037c
 804a45d:	89 1c 24             	mov    %ebx,(%esp)
 804a460:	89 44 24 04          	mov    %eax,0x4(%esp)
 804a464:	ff 15 78 03 06 08    	call   *0x8060378
 804a46a:	39 f7                	cmp    %esi,%edi
 804a46c:	8b 95 80 df ff ff    	mov    -0x2080(%ebp),%edx
 804a472:	7f cc                	jg     804a440 <pyi_pylib_start_python+0x210>
 804a474:	c7 04 24 a1 c8 05 08 	movl   $0x805c8a1,(%esp)
 804a47b:	ff 15 68 03 06 08    	call   *0x8060368
 804a481:	89 5c 24 08          	mov    %ebx,0x8(%esp)
 804a485:	c7 44 24 04 a5 c8 05 	movl   $0x805c8a5,0x4(%esp)
 804a48c:	08 
 804a48d:	89 04 24             	mov    %eax,(%esp)
 804a490:	ff 15 70 03 06 08    	call   *0x8060370
 804a496:	ff 15 9c 03 06 08    	call   *0x806039c
 804a49c:	89 c2                	mov    %eax,%edx
 804a49e:	31 c0                	xor    %eax,%eax
 804a4a0:	85 d2                	test   %edx,%edx
 804a4a2:	0f 85 da 00 00 00    	jne    804a582 <pyi_pylib_start_python+0x352>
 804a4a8:	81 c4 8c 20 00 00    	add    $0x208c,%esp
 804a4ae:	5b                   	pop    %ebx
 804a4af:	5e                   	pop    %esi
 804a4b0:	5f                   	pop    %edi
 804a4b1:	5d                   	pop    %ebp
 804a4b2:	c3                   	ret    
 804a4b3:	90                   	nop
 804a4b4:	8d 74 26 00          	lea    0x0(%esi,%eiz,1),%esi
 804a4b8:	8b 15 40 03 06 08    	mov    0x8060340,%edx
 804a4be:	c7 02 01 00 00 00    	movl   $0x1,(%edx)
 804a4c4:	e9 0f fe ff ff       	jmp    804a2d8 <pyi_pylib_start_python+0xa8>
 804a4c9:	8d b4 26 00 00 00 00 	lea    0x0(%esi,%eiz,1),%esi
 804a4d0:	c7 85 84 df ff ff 01 	movl   $0x1,-0x207c(%ebp)
 804a4d7:	00 00 00 
 804a4da:	e9 f9 fd ff ff       	jmp    804a2d8 <pyi_pylib_start_python+0xa8>
 804a4df:	90                   	nop
 804a4e0:	8b 15 38 03 06 08    	mov    0x8060338,%edx
 804a4e6:	c7 02 00 00 00 00    	movl   $0x0,(%edx)
 804a4ec:	e9 e7 fd ff ff       	jmp    804a2d8 <pyi_pylib_start_python+0xa8>
 804a4f1:	8d b4 26 00 00 00 00 	lea    0x0(%esi,%eiz,1),%esi
 804a4f8:	8d 50 14             	lea    0x14(%eax),%edx
 804a4fb:	89 85 80 df ff ff    	mov    %eax,-0x2080(%ebp)
 804a501:	89 14 24             	mov    %edx,(%esp)
 804a504:	ff 15 ac 03 06 08    	call   *0x80603ac
 804a50a:	8b 85 80 df ff ff    	mov    -0x2080(%ebp),%eax
 804a510:	e9 c3 fd ff ff       	jmp    804a2d8 <pyi_pylib_start_python+0xa8>
 804a515:	8d 76 00             	lea    0x0(%esi),%esi
 804a518:	8b 15 3c 03 06 08    	mov    0x806033c,%edx
 804a51e:	c7 02 01 00 00 00    	movl   $0x1,(%edx)
 804a524:	e9 af fd ff ff       	jmp    804a2d8 <pyi_pylib_start_python+0xa8>
 804a529:	8d b4 26 00 00 00 00 	lea    0x0(%esi,%eiz,1),%esi
 804a530:	8d 83 68 20 00 00    	lea    0x2068(%ebx),%eax
 804a536:	89 14 24             	mov    %edx,(%esp)
 804a539:	89 95 80 df ff ff    	mov    %edx,-0x2080(%ebp)
 804a53f:	89 44 24 04          	mov    %eax,0x4(%esp)
 804a543:	e8 1c ef ff ff       	call   8049464 <strcpy@plt>
 804a548:	8b 95 80 df ff ff    	mov    -0x2080(%ebp),%edx
 804a54e:	8d 85 96 df ff ff    	lea    -0x206a(%ebp),%eax
 804a554:	c7 44 24 04 8a c8 05 	movl   $0x805c88a,0x4(%esp)
 804a55b:	08 
 804a55c:	89 04 24             	mov    %eax,(%esp)
 804a55f:	89 54 24 08          	mov    %edx,0x8(%esp)
 804a563:	e8 dc eb ff ff       	call   8049144 <sprintf@plt>
 804a568:	8d 85 96 df ff ff    	lea    -0x206a(%ebp),%eax
 804a56e:	89 04 24             	mov    %eax,(%esp)
 804a571:	ff 15 5c 03 06 08    	call   *0x806035c
 804a577:	8b 95 80 df ff ff    	mov    -0x2080(%ebp),%edx
 804a57d:	e9 2e fe ff ff       	jmp    804a3b0 <pyi_pylib_start_python+0x180>
 804a582:	c7 04 24 ac c8 05 08 	movl   $0x805c8ac,(%esp)
 804a589:	e8 b2 0f 01 00       	call   805b540 <stbprint>
 804a58e:	b8 ff ff ff ff       	mov    $0xffffffff,%eax
 804a593:	e9 10 ff ff ff       	jmp    804a4a8 <pyi_pylib_start_python+0x278>
 804a598:	90                   	nop
 804a599:	8d b4 26 00 00 00 00 	lea    0x0(%esi,%eiz,1),%esi

0804a5a0 <pyi_pylib_load>:
 804a5a0:	55                   	push   %ebp
 804a5a1:	89 e5                	mov    %esp,%ebp
 804a5a3:	81 ec 68 10 00 00    	sub    $0x1068,%esp
 804a5a9:	89 5d f4             	mov    %ebx,-0xc(%ebp)
 804a5ac:	8b 5d 08             	mov    0x8(%ebp),%ebx
 804a5af:	89 75 f8             	mov    %esi,-0x8(%ebp)
 804a5b2:	8d 75 a8             	lea    -0x58(%ebp),%esi
 804a5b5:	89 7d fc             	mov    %edi,-0x4(%ebp)
 804a5b8:	8b 43 24             	mov    0x24(%ebx),%eax
 804a5bb:	89 04 24             	mov    %eax,(%esp)
 804a5be:	e8 11 ed ff ff       	call   80492d4 <ntohl@plt>
 804a5c3:	89 34 24             	mov    %esi,(%esp)
 804a5c6:	89 c7                	mov    %eax,%edi
 804a5c8:	8d 43 28             	lea    0x28(%ebx),%eax
 804a5cb:	81 c3 68 30 00 00    	add    $0x3068,%ebx
 804a5d1:	89 44 24 04          	mov    %eax,0x4(%esp)
 804a5d5:	e8 8a ee ff ff       	call   8049464 <strcpy@plt>
 804a5da:	89 5c 24 04          	mov    %ebx,0x4(%esp)
 804a5de:	8d 9d a8 ef ff ff    	lea    -0x1058(%ebp),%ebx
 804a5e4:	89 74 24 08          	mov    %esi,0x8(%esp)
 804a5e8:	89 1c 24             	mov    %ebx,(%esp)
 804a5eb:	e8 40 17 01 00       	call   805bd30 <pyi_path_join>
 804a5f0:	89 1c 24             	mov    %ebx,(%esp)
 804a5f3:	e8 68 01 00 00       	call   804a760 <pyi_utils_dlopen>
 804a5f8:	85 c0                	test   %eax,%eax
 804a5fa:	74 1b                	je     804a617 <pyi_pylib_load+0x77>
 804a5fc:	89 7c 24 04          	mov    %edi,0x4(%esp)
 804a600:	89 04 24             	mov    %eax,(%esp)
 804a603:	e8 28 07 00 00       	call   804ad30 <pyi_python_map_names>
 804a608:	31 c0                	xor    %eax,%eax
 804a60a:	8b 5d f4             	mov    -0xc(%ebp),%ebx
 804a60d:	8b 75 f8             	mov    -0x8(%ebp),%esi
 804a610:	8b 7d fc             	mov    -0x4(%ebp),%edi
 804a613:	89 ec                	mov    %ebp,%esp
 804a615:	5d                   	pop    %ebp
 804a616:	c3                   	ret    
 804a617:	e8 38 ef ff ff       	call   8049554 <dlerror@plt>
 804a61c:	89 5c 24 04          	mov    %ebx,0x4(%esp)
 804a620:	c7 04 24 d0 c8 05 08 	movl   $0x805c8d0,(%esp)
 804a627:	89 44 24 08          	mov    %eax,0x8(%esp)
 804a62b:	e8 10 0f 01 00       	call   805b540 <stbprint>
 804a630:	b8 ff ff ff ff       	mov    $0xffffffff,%eax
 804a635:	eb d3                	jmp    804a60a <pyi_pylib_load+0x6a>
 804a637:	90                   	nop
 804a638:	90                   	nop
 804a639:	90                   	nop
 804a63a:	90                   	nop
 804a63b:	90                   	nop
 804a63c:	90                   	nop
 804a63d:	90                   	nop
 804a63e:	90                   	nop
 804a63f:	90                   	nop

0804a640 <pyi_utils_create_child>:
 804a640:	55                   	push   %ebp
 804a641:	89 e5                	mov    %esp,%ebp
 804a643:	83 ec 28             	sub    $0x28,%esp
 804a646:	c7 45 f4 00 00 00 00 	movl   $0x0,-0xc(%ebp)
 804a64d:	e8 72 ef ff ff       	call   80495c4 <fork@plt>
 804a652:	85 c0                	test   %eax,%eax
 804a654:	75 52                	jne    804a6a8 <pyi_utils_create_child+0x68>
 804a656:	8b 45 0c             	mov    0xc(%ebp),%eax
 804a659:	89 44 24 04          	mov    %eax,0x4(%esp)
 804a65d:	8b 45 08             	mov    0x8(%ebp),%eax
 804a660:	89 04 24             	mov    %eax,(%esp)
 804a663:	e8 6c ed ff ff       	call   80493d4 <execvp@plt>
 804a668:	8d 45 f4             	lea    -0xc(%ebp),%eax
 804a66b:	89 04 24             	mov    %eax,(%esp)
 804a66e:	e8 41 ec ff ff       	call   80492b4 <wait@plt>
 804a673:	a1 30 03 06 08       	mov    0x8060330,%eax
 804a678:	85 c0                	test   %eax,%eax
 804a67a:	75 74                	jne    804a6f0 <pyi_utils_create_child+0xb0>
 804a67c:	8b 55 f4             	mov    -0xc(%ebp),%edx
 804a67f:	89 d1                	mov    %edx,%ecx
 804a681:	0f b6 c6             	movzbl %dh,%eax
 804a684:	83 e1 7f             	and    $0x7f,%ecx
 804a687:	74 17                	je     804a6a0 <pyi_utils_create_child+0x60>
 804a689:	80 fa 7f             	cmp    $0x7f,%dl
 804a68c:	b8 01 00 00 00       	mov    $0x1,%eax
 804a691:	74 0d                	je     804a6a0 <pyi_utils_create_child+0x60>
 804a693:	89 0c 24             	mov    %ecx,(%esp)
 804a696:	e8 f9 ed ff ff       	call   8049494 <raise@plt>
 804a69b:	b8 01 00 00 00       	mov    $0x1,%eax
 804a6a0:	c9                   	leave  
 804a6a1:	c3                   	ret    
 804a6a2:	8d b6 00 00 00 00    	lea    0x0(%esi),%esi
 804a6a8:	c7 44 24 04 40 a7 04 	movl   $0x804a740,0x4(%esp)
 804a6af:	08 
 804a6b0:	c7 04 24 02 00 00 00 	movl   $0x2,(%esp)
 804a6b7:	a3 30 03 06 08       	mov    %eax,0x8060330
 804a6bc:	e8 03 eb ff ff       	call   80491c4 <signal@plt>
 804a6c1:	c7 44 24 04 40 a7 04 	movl   $0x804a740,0x4(%esp)
 804a6c8:	08 
 804a6c9:	c7 04 24 09 00 00 00 	movl   $0x9,(%esp)
 804a6d0:	e8 ef ea ff ff       	call   80491c4 <signal@plt>
 804a6d5:	c7 44 24 04 40 a7 04 	movl   $0x804a740,0x4(%esp)
 804a6dc:	08 
 804a6dd:	c7 04 24 0f 00 00 00 	movl   $0xf,(%esp)
 804a6e4:	e8 db ea ff ff       	call   80491c4 <signal@plt>
 804a6e9:	e9 7a ff ff ff       	jmp    804a668 <pyi_utils_create_child+0x28>
 804a6ee:	66 90                	xchg   %ax,%ax
 804a6f0:	c7 44 24 04 00 00 00 	movl   $0x0,0x4(%esp)
 804a6f7:	00 
 804a6f8:	c7 04 24 02 00 00 00 	movl   $0x2,(%esp)
 804a6ff:	e8 c0 ea ff ff       	call   80491c4 <signal@plt>
 804a704:	c7 44 24 04 00 00 00 	movl   $0x0,0x4(%esp)
 804a70b:	00 
 804a70c:	c7 04 24 09 00 00 00 	movl   $0x9,(%esp)
 804a713:	e8 ac ea ff ff       	call   80491c4 <signal@plt>
 804a718:	c7 44 24 04 00 00 00 	movl   $0x0,0x4(%esp)
 804a71f:	00 
 804a720:	c7 04 24 0f 00 00 00 	movl   $0xf,(%esp)
 804a727:	e8 98 ea ff ff       	call   80491c4 <signal@plt>
 804a72c:	e9 4b ff ff ff       	jmp    804a67c <pyi_utils_create_child+0x3c>
 804a731:	eb 0d                	jmp    804a740 <_signal_handler>
 804a733:	90                   	nop
 804a734:	90                   	nop
 804a735:	90                   	nop
 804a736:	90                   	nop
 804a737:	90                   	nop
 804a738:	90                   	nop
 804a739:	90                   	nop
 804a73a:	90                   	nop
 804a73b:	90                   	nop
 804a73c:	90                   	nop
 804a73d:	90                   	nop
 804a73e:	90                   	nop
 804a73f:	90                   	nop

0804a740 <_signal_handler>:
 804a740:	55                   	push   %ebp
 804a741:	89 e5                	mov    %esp,%ebp
 804a743:	83 ec 18             	sub    $0x18,%esp
 804a746:	8b 45 08             	mov    0x8(%ebp),%eax
 804a749:	89 44 24 04          	mov    %eax,0x4(%esp)
 804a74d:	a1 30 03 06 08       	mov    0x8060330,%eax
 804a752:	89 04 24             	mov    %eax,(%esp)
 804a755:	e8 9a ee ff ff       	call   80495f4 <kill@plt>
 804a75a:	c9                   	leave  
 804a75b:	c3                   	ret    
 804a75c:	8d 74 26 00          	lea    0x0(%esi,%eiz,1),%esi

0804a760 <pyi_utils_dlopen>:
 804a760:	55                   	push   %ebp
 804a761:	89 e5                	mov    %esp,%ebp
 804a763:	83 ec 18             	sub    $0x18,%esp
 804a766:	8b 45 08             	mov    0x8(%ebp),%eax
 804a769:	c7 44 24 04 02 01 00 	movl   $0x102,0x4(%esp)
 804a770:	00 
 804a771:	89 04 24             	mov    %eax,(%esp)
 804a774:	e8 fb ec ff ff       	call   8049474 <dlopen@plt>
 804a779:	c9                   	leave  
 804a77a:	c3                   	ret    
 804a77b:	90                   	nop
 804a77c:	8d 74 26 00          	lea    0x0(%esi,%eiz,1),%esi

0804a780 <pyi_open_target>:
 804a780:	55                   	push   %ebp
 804a781:	89 e5                	mov    %esp,%ebp
 804a783:	57                   	push   %edi
 804a784:	56                   	push   %esi
 804a785:	53                   	push   %ebx
 804a786:	81 ec 7c 20 00 00    	sub    $0x207c,%esp
 804a78c:	8b 45 08             	mov    0x8(%ebp),%eax
 804a78f:	8d 9d 90 ef ff ff    	lea    -0x1070(%ebp),%ebx
 804a795:	89 1c 24             	mov    %ebx,(%esp)
 804a798:	8d b5 90 df ff ff    	lea    -0x2070(%ebp),%esi
 804a79e:	8d 7d 90             	lea    -0x70(%ebp),%edi
 804a7a1:	89 44 24 04          	mov    %eax,0x4(%esp)
 804a7a5:	e8 ba ec ff ff       	call   8049464 <strcpy@plt>
 804a7aa:	8b 45 0c             	mov    0xc(%ebp),%eax
 804a7ad:	89 34 24             	mov    %esi,(%esp)
 804a7b0:	89 44 24 04          	mov    %eax,0x4(%esp)
 804a7b4:	e8 ab ec ff ff       	call   8049464 <strcpy@plt>
 804a7b9:	89 34 24             	mov    %esi,(%esp)
 804a7bc:	c7 44 24 04 6d c7 05 	movl   $0x805c76d,0x4(%esp)
 804a7c3:	08 
 804a7c4:	e8 9b ed ff ff       	call   8049564 <strtok@plt>
 804a7c9:	85 c0                	test   %eax,%eax
 804a7cb:	89 c6                	mov    %eax,%esi
 804a7cd:	74 79                	je     804a848 <pyi_open_target+0xc8>
 804a7cf:	90                   	nop
 804a7d0:	89 d9                	mov    %ebx,%ecx
 804a7d2:	8b 11                	mov    (%ecx),%edx
 804a7d4:	83 c1 04             	add    $0x4,%ecx
 804a7d7:	8d 82 ff fe fe fe    	lea    -0x1010101(%edx),%eax
 804a7dd:	f7 d2                	not    %edx
 804a7df:	21 d0                	and    %edx,%eax
 804a7e1:	25 80 80 80 80       	and    $0x80808080,%eax
 804a7e6:	74 ea                	je     804a7d2 <pyi_open_target+0x52>
 804a7e8:	a9 80 80 00 00       	test   $0x8080,%eax
 804a7ed:	75 06                	jne    804a7f5 <pyi_open_target+0x75>
 804a7ef:	c1 e8 10             	shr    $0x10,%eax
 804a7f2:	83 c1 02             	add    $0x2,%ecx
 804a7f5:	00 c0                	add    %al,%al
 804a7f7:	83 d9 03             	sbb    $0x3,%ecx
 804a7fa:	66 c7 01 2f 00       	movw   $0x2f,(%ecx)
 804a7ff:	89 74 24 04          	mov    %esi,0x4(%esp)
 804a803:	89 1c 24             	mov    %ebx,(%esp)
 804a806:	e8 a9 ed ff ff       	call   80495b4 <strcat@plt>
 804a80b:	c7 44 24 04 6d c7 05 	movl   $0x805c76d,0x4(%esp)
 804a812:	08 
 804a813:	c7 04 24 00 00 00 00 	movl   $0x0,(%esp)
 804a81a:	e8 45 ed ff ff       	call   8049564 <strtok@plt>
 804a81f:	85 c0                	test   %eax,%eax
 804a821:	89 c6                	mov    %eax,%esi
 804a823:	74 23                	je     804a848 <pyi_open_target+0xc8>
 804a825:	89 7c 24 04          	mov    %edi,0x4(%esp)
 804a829:	89 1c 24             	mov    %ebx,(%esp)
 804a82c:	e8 6f 1e 01 00       	call   805c6a0 <__stat>
 804a831:	85 c0                	test   %eax,%eax
 804a833:	79 9b                	jns    804a7d0 <pyi_open_target+0x50>
 804a835:	c7 44 24 04 c0 01 00 	movl   $0x1c0,0x4(%esp)
 804a83c:	00 
 804a83d:	89 1c 24             	mov    %ebx,(%esp)
 804a840:	e8 2f e9 ff ff       	call   8049174 <mkdir@plt>
 804a845:	eb 89                	jmp    804a7d0 <pyi_open_target+0x50>
 804a847:	90                   	nop
 804a848:	89 7c 24 04          	mov    %edi,0x4(%esp)
 804a84c:	89 1c 24             	mov    %ebx,(%esp)
 804a84f:	e8 4c 1e 01 00       	call   805c6a0 <__stat>
 804a854:	85 c0                	test   %eax,%eax
 804a856:	75 10                	jne    804a868 <pyi_open_target+0xe8>
 804a858:	89 5c 24 04          	mov    %ebx,0x4(%esp)
 804a85c:	c7 04 24 cc c9 05 08 	movl   $0x805c9cc,(%esp)
 804a863:	e8 d8 0c 01 00       	call   805b540 <stbprint>
 804a868:	89 1c 24             	mov    %ebx,(%esp)
 804a86b:	c7 44 24 04 94 c9 05 	movl   $0x805c994,0x4(%esp)
 804a872:	08 
 804a873:	e8 7c eb ff ff       	call   80493f4 <fopen@plt>
 804a878:	81 c4 7c 20 00 00    	add    $0x207c,%esp
 804a87e:	5b                   	pop    %ebx
 804a87f:	5e                   	pop    %esi
 804a880:	5f                   	pop    %edi
 804a881:	5d                   	pop    %ebp
 804a882:	c3                   	ret    
 804a883:	8d b6 00 00 00 00    	lea    0x0(%esi),%esi
 804a889:	8d bc 27 00 00 00 00 	lea    0x0(%edi,%eiz,1),%edi

0804a890 <pyi_copy_file>:
 804a890:	55                   	push   %ebp
 804a891:	89 e5                	mov    %esp,%ebp
 804a893:	57                   	push   %edi
 804a894:	56                   	push   %esi
 804a895:	53                   	push   %ebx
 804a896:	81 ec 1c 10 00 00    	sub    $0x101c,%esp
 804a89c:	c7 44 24 04 97 c9 05 	movl   $0x805c997,0x4(%esp)
 804a8a3:	08 
 804a8a4:	8b 45 08             	mov    0x8(%ebp),%eax
 804a8a7:	89 04 24             	mov    %eax,(%esp)
 804a8aa:	e8 71 f1 00 00       	call   8059a20 <stb_fopen>
 804a8af:	89 c3                	mov    %eax,%ebx
 804a8b1:	8b 45 10             	mov    0x10(%ebp),%eax
 804a8b4:	89 44 24 04          	mov    %eax,0x4(%esp)
 804a8b8:	8b 45 0c             	mov    0xc(%ebp),%eax
 804a8bb:	89 04 24             	mov    %eax,(%esp)
 804a8be:	e8 bd fe ff ff       	call   804a780 <pyi_open_target>
 804a8c3:	85 c0                	test   %eax,%eax
 804a8c5:	89 c6                	mov    %eax,%esi
 804a8c7:	0f 84 d3 00 00 00    	je     804a9a0 <pyi_copy_file+0x110>
 804a8cd:	85 db                	test   %ebx,%ebx
 804a8cf:	8d bd e8 ef ff ff    	lea    -0x1018(%ebp),%edi
 804a8d5:	0f 84 c5 00 00 00    	je     804a9a0 <pyi_copy_file+0x110>
 804a8db:	90                   	nop
 804a8dc:	8d 74 26 00          	lea    0x0(%esi,%eiz,1),%esi
 804a8e0:	89 1c 24             	mov    %ebx,(%esp)
 804a8e3:	e8 6c eb ff ff       	call   8049454 <feof@plt>
 804a8e8:	85 c0                	test   %eax,%eax
 804a8ea:	0f 85 c8 00 00 00    	jne    804a9b8 <pyi_copy_file+0x128>
 804a8f0:	89 5c 24 0c          	mov    %ebx,0xc(%esp)
 804a8f4:	c7 44 24 08 01 00 00 	movl   $0x1,0x8(%esp)
 804a8fb:	00 
 804a8fc:	c7 44 24 04 00 10 00 	movl   $0x1000,0x4(%esp)
 804a903:	00 
 804a904:	89 3c 24             	mov    %edi,(%esp)
 804a907:	e8 d8 ec ff ff       	call   80495e4 <fread@plt>
 804a90c:	83 f8 ff             	cmp    $0xffffffff,%eax
 804a90f:	74 6f                	je     804a980 <pyi_copy_file+0xf0>
 804a911:	89 74 24 0c          	mov    %esi,0xc(%esp)
 804a915:	c7 44 24 08 01 00 00 	movl   $0x1,0x8(%esp)
 804a91c:	00 
 804a91d:	c7 44 24 04 00 10 00 	movl   $0x1000,0x4(%esp)
 804a924:	00 
 804a925:	89 3c 24             	mov    %edi,(%esp)
 804a928:	e8 a7 eb ff ff       	call   80494d4 <fwrite@plt>
 804a92d:	89 34 24             	mov    %esi,(%esp)
 804a930:	e8 df ec ff ff       	call   8049614 <ferror@plt>
 804a935:	85 c0                	test   %eax,%eax
 804a937:	74 a7                	je     804a8e0 <pyi_copy_file+0x50>
 804a939:	89 34 24             	mov    %esi,(%esp)
 804a93c:	bf ff ff ff ff       	mov    $0xffffffff,%edi
 804a941:	e8 de ea ff ff       	call   8049424 <clearerr@plt>
 804a946:	89 34 24             	mov    %esi,(%esp)
 804a949:	e8 e6 e7 ff ff       	call   8049134 <fileno@plt>
 804a94e:	c7 44 24 04 c0 01 00 	movl   $0x1c0,0x4(%esp)
 804a955:	00 
 804a956:	89 04 24             	mov    %eax,(%esp)
 804a959:	e8 06 ed ff ff       	call   8049664 <fchmod@plt>
 804a95e:	89 1c 24             	mov    %ebx,(%esp)
 804a961:	e8 3e ea ff ff       	call   80493a4 <fclose@plt>
 804a966:	89 34 24             	mov    %esi,(%esp)
 804a969:	e8 36 ea ff ff       	call   80493a4 <fclose@plt>
 804a96e:	81 c4 1c 10 00 00    	add    $0x101c,%esp
 804a974:	89 f8                	mov    %edi,%eax
 804a976:	5b                   	pop    %ebx
 804a977:	5e                   	pop    %esi
 804a978:	5f                   	pop    %edi
 804a979:	5d                   	pop    %ebp
 804a97a:	c3                   	ret    
 804a97b:	90                   	nop
 804a97c:	8d 74 26 00          	lea    0x0(%esi,%eiz,1),%esi
 804a980:	89 1c 24             	mov    %ebx,(%esp)
 804a983:	e8 8c ec ff ff       	call   8049614 <ferror@plt>
 804a988:	85 c0                	test   %eax,%eax
 804a98a:	0f 84 50 ff ff ff    	je     804a8e0 <pyi_copy_file+0x50>
 804a990:	89 1c 24             	mov    %ebx,(%esp)
 804a993:	bf ff ff ff ff       	mov    $0xffffffff,%edi
 804a998:	e8 87 ea ff ff       	call   8049424 <clearerr@plt>
 804a99d:	eb a7                	jmp    804a946 <pyi_copy_file+0xb6>
 804a99f:	90                   	nop
 804a9a0:	bf ff ff ff ff       	mov    $0xffffffff,%edi
 804a9a5:	81 c4 1c 10 00 00    	add    $0x101c,%esp
 804a9ab:	89 f8                	mov    %edi,%eax
 804a9ad:	5b                   	pop    %ebx
 804a9ae:	5e                   	pop    %esi
 804a9af:	5f                   	pop    %edi
 804a9b0:	5d                   	pop    %ebp
 804a9b1:	c3                   	ret    
 804a9b2:	8d b6 00 00 00 00    	lea    0x0(%esi),%esi
 804a9b8:	31 ff                	xor    %edi,%edi
 804a9ba:	eb 8a                	jmp    804a946 <pyi_copy_file+0xb6>
 804a9bc:	8d 74 26 00          	lea    0x0(%esi,%eiz,1),%esi

0804a9c0 <pyi_remove_temp_path>:
 804a9c0:	55                   	push   %ebp
 804a9c1:	89 e5                	mov    %esp,%ebp
 804a9c3:	57                   	push   %edi
 804a9c4:	56                   	push   %esi
 804a9c5:	53                   	push   %ebx
 804a9c6:	81 ec 8c 10 00 00    	sub    $0x108c,%esp
 804a9cc:	8b 45 08             	mov    0x8(%ebp),%eax
 804a9cf:	8d 95 8f ef ff ff    	lea    -0x1071(%ebp),%edx
 804a9d5:	89 14 24             	mov    %edx,(%esp)
 804a9d8:	89 44 24 04          	mov    %eax,0x4(%esp)
 804a9dc:	e8 83 ea ff ff       	call   8049464 <strcpy@plt>
 804a9e1:	8d 85 8f ef ff ff    	lea    -0x1071(%ebp),%eax
 804a9e7:	89 04 24             	mov    %eax,(%esp)
 804a9ea:	e8 f5 e9 ff ff       	call   80493e4 <strlen@plt>
 804a9ef:	80 bc 05 8e ef ff ff 	cmpb   $0x2f,-0x1072(%ebp,%eax,1)
 804a9f6:	2f 
 804a9f7:	89 85 84 ef ff ff    	mov    %eax,-0x107c(%ebp)
 804a9fd:	74 1f                	je     804aa1e <pyi_remove_temp_path+0x5e>
 804a9ff:	8d 95 8f ef ff ff    	lea    -0x1071(%ebp),%edx
 804aa05:	89 14 24             	mov    %edx,(%esp)
 804aa08:	e8 d7 e9 ff ff       	call   80493e4 <strlen@plt>
 804aa0d:	66 c7 84 05 8f ef ff 	movw   $0x2f,-0x1071(%ebp,%eax,1)
 804aa14:	ff 2f 00 
 804aa17:	83 85 84 ef ff ff 01 	addl   $0x1,-0x107c(%ebp)
 804aa1e:	8b 45 08             	mov    0x8(%ebp),%eax
 804aa21:	89 04 24             	mov    %eax,(%esp)
 804aa24:	e8 3b e9 ff ff       	call   8049364 <opendir@plt>
 804aa29:	89 c3                	mov    %eax,%ebx
 804aa2b:	90                   	nop
 804aa2c:	8d 74 26 00          	lea    0x0(%esi,%eiz,1),%esi
 804aa30:	89 1c 24             	mov    %ebx,(%esp)
 804aa33:	e8 bc e8 ff ff       	call   80492f4 <readdir@plt>
 804aa38:	85 c0                	test   %eax,%eax
 804aa3a:	0f 84 90 00 00 00    	je     804aad0 <pyi_remove_temp_path+0x110>
 804aa40:	83 c0 0b             	add    $0xb,%eax
 804aa43:	bf 70 c7 05 08       	mov    $0x805c770,%edi
 804aa48:	89 c6                	mov    %eax,%esi
 804aa4a:	b9 02 00 00 00       	mov    $0x2,%ecx
 804aa4f:	f3 a6                	repz cmpsb %es:(%edi),%ds:(%esi)
 804aa51:	74 dd                	je     804aa30 <pyi_remove_temp_path+0x70>
 804aa53:	bf 6f c7 05 08       	mov    $0x805c76f,%edi
 804aa58:	b9 03 00 00 00       	mov    $0x3,%ecx
 804aa5d:	89 c6                	mov    %eax,%esi
 804aa5f:	f3 a6                	repz cmpsb %es:(%edi),%ds:(%esi)
 804aa61:	74 cd                	je     804aa30 <pyi_remove_temp_path+0x70>
 804aa63:	8b 95 84 ef ff ff    	mov    -0x107c(%ebp),%edx
 804aa69:	89 44 24 04          	mov    %eax,0x4(%esp)
 804aa6d:	8d 85 8f ef ff ff    	lea    -0x1071(%ebp),%eax
 804aa73:	89 04 24             	mov    %eax,(%esp)
 804aa76:	c6 84 15 8f ef ff ff 	movb   $0x0,-0x1071(%ebp,%edx,1)
 804aa7d:	00 
 804aa7e:	e8 31 eb ff ff       	call   80495b4 <strcat@plt>
 804aa83:	8d 55 90             	lea    -0x70(%ebp),%edx
 804aa86:	8d 85 8f ef ff ff    	lea    -0x1071(%ebp),%eax
 804aa8c:	89 54 24 04          	mov    %edx,0x4(%esp)
 804aa90:	89 04 24             	mov    %eax,(%esp)
 804aa93:	e8 08 1c 01 00       	call   805c6a0 <__stat>
 804aa98:	85 c0                	test   %eax,%eax
 804aa9a:	75 94                	jne    804aa30 <pyi_remove_temp_path+0x70>
 804aa9c:	8b 45 a0             	mov    -0x60(%ebp),%eax
 804aa9f:	25 00 f0 00 00       	and    $0xf000,%eax
 804aaa4:	3d 00 40 00 00       	cmp    $0x4000,%eax
 804aaa9:	74 45                	je     804aaf0 <pyi_remove_temp_path+0x130>
 804aaab:	8d 85 8f ef ff ff    	lea    -0x1071(%ebp),%eax
 804aab1:	89 04 24             	mov    %eax,(%esp)
 804aab4:	e8 5b e9 ff ff       	call   8049414 <unlink@plt>
 804aab9:	89 1c 24             	mov    %ebx,(%esp)
 804aabc:	e8 33 e8 ff ff       	call   80492f4 <readdir@plt>
 804aac1:	85 c0                	test   %eax,%eax
 804aac3:	0f 85 77 ff ff ff    	jne    804aa40 <pyi_remove_temp_path+0x80>
 804aac9:	8d b4 26 00 00 00 00 	lea    0x0(%esi,%eiz,1),%esi
 804aad0:	89 1c 24             	mov    %ebx,(%esp)
 804aad3:	e8 dc e9 ff ff       	call   80494b4 <closedir@plt>
 804aad8:	8b 55 08             	mov    0x8(%ebp),%edx
 804aadb:	89 14 24             	mov    %edx,(%esp)
 804aade:	e8 61 ea ff ff       	call   8049544 <rmdir@plt>
 804aae3:	81 c4 8c 10 00 00    	add    $0x108c,%esp
 804aae9:	5b                   	pop    %ebx
 804aaea:	5e                   	pop    %esi
 804aaeb:	5f                   	pop    %edi
 804aaec:	5d                   	pop    %ebp
 804aaed:	c3                   	ret    
 804aaee:	66 90                	xchg   %ax,%ax
 804aaf0:	8d 95 8f ef ff ff    	lea    -0x1071(%ebp),%edx
 804aaf6:	89 14 24             	mov    %edx,(%esp)
 804aaf9:	e8 c2 fe ff ff       	call   804a9c0 <pyi_remove_temp_path>
 804aafe:	e9 2d ff ff ff       	jmp    804aa30 <pyi_remove_temp_path+0x70>
 804ab03:	8d b6 00 00 00 00    	lea    0x0(%esi),%esi
 804ab09:	8d bc 27 00 00 00 00 	lea    0x0(%edi,%eiz,1),%edi

0804ab10 <cleanUp>:
 804ab10:	55                   	push   %ebp
 804ab11:	89 e5                	mov    %esp,%ebp
 804ab13:	83 ec 08             	sub    $0x8,%esp
 804ab16:	8b 45 08             	mov    0x8(%ebp),%eax
 804ab19:	80 b8 68 20 00 00 00 	cmpb   $0x0,0x2068(%eax)
 804ab20:	75 06                	jne    804ab28 <cleanUp+0x18>
 804ab22:	c9                   	leave  
 804ab23:	c3                   	ret    
 804ab24:	8d 74 26 00          	lea    0x0(%esi,%eiz,1),%esi
 804ab28:	05 68 20 00 00       	add    $0x2068,%eax
 804ab2d:	89 45 08             	mov    %eax,0x8(%ebp)
 804ab30:	c9                   	leave  
 804ab31:	e9 8a fe ff ff       	jmp    804a9c0 <pyi_remove_temp_path>
 804ab36:	8d 76 00             	lea    0x0(%esi),%esi
 804ab39:	8d bc 27 00 00 00 00 	lea    0x0(%edi,%eiz,1),%edi

0804ab40 <pyi_test_temp_path>:
 804ab40:	55                   	push   %ebp
 804ab41:	89 e5                	mov    %esp,%ebp
 804ab43:	53                   	push   %ebx
 804ab44:	83 ec 14             	sub    $0x14,%esp
 804ab47:	8b 5d 08             	mov    0x8(%ebp),%ebx
 804ab4a:	89 1c 24             	mov    %ebx,(%esp)
 804ab4d:	e8 92 e8 ff ff       	call   80493e4 <strlen@plt>
 804ab52:	80 7c 03 ff 2f       	cmpb   $0x2f,-0x1(%ebx,%eax,1)
 804ab57:	74 0e                	je     804ab67 <pyi_test_temp_path+0x27>
 804ab59:	89 1c 24             	mov    %ebx,(%esp)
 804ab5c:	e8 83 e8 ff ff       	call   80493e4 <strlen@plt>
 804ab61:	66 c7 04 03 2f 00    	movw   $0x2f,(%ebx,%eax,1)
 804ab67:	89 1c 24             	mov    %ebx,(%esp)
 804ab6a:	e8 75 e8 ff ff       	call   80493e4 <strlen@plt>
 804ab6f:	8d 04 03             	lea    (%ebx,%eax,1),%eax
 804ab72:	c7 00 5f 4d 45 49    	movl   $0x49454d5f,(%eax)
 804ab78:	c7 40 04 58 58 58 58 	movl   $0x58585858,0x4(%eax)
 804ab7f:	66 c7 40 08 58 58    	movw   $0x5858,0x8(%eax)
 804ab85:	c6 40 0a 00          	movb   $0x0,0xa(%eax)
 804ab89:	89 1c 24             	mov    %ebx,(%esp)
 804ab8c:	e8 73 e8 ff ff       	call   8049404 <mkdtemp@plt>
 804ab91:	85 c0                	test   %eax,%eax
 804ab93:	0f 95 c0             	setne  %al
 804ab96:	83 c4 14             	add    $0x14,%esp
 804ab99:	0f b6 c0             	movzbl %al,%eax
 804ab9c:	5b                   	pop    %ebx
 804ab9d:	5d                   	pop    %ebp
 804ab9e:	c3                   	ret    
 804ab9f:	90                   	nop

0804aba0 <pyi_unsetenv>:
 804aba0:	55                   	push   %ebp
 804aba1:	89 e5                	mov    %esp,%ebp
 804aba3:	83 ec 08             	sub    $0x8,%esp
 804aba6:	c9                   	leave  
 804aba7:	e9 58 e6 ff ff       	jmp    8049204 <unsetenv@plt>
 804abac:	8d 74 26 00          	lea    0x0(%esi,%eiz,1),%esi

0804abb0 <pyi_setenv>:
 804abb0:	55                   	push   %ebp
 804abb1:	89 e5                	mov    %esp,%ebp
 804abb3:	83 ec 18             	sub    $0x18,%esp
 804abb6:	8b 45 0c             	mov    0xc(%ebp),%eax
 804abb9:	c7 44 24 08 01 00 00 	movl   $0x1,0x8(%esp)
 804abc0:	00 
 804abc1:	89 44 24 04          	mov    %eax,0x4(%esp)
 804abc5:	8b 45 08             	mov    0x8(%ebp),%eax
 804abc8:	89 04 24             	mov    %eax,(%esp)
 804abcb:	e8 74 ea ff ff       	call   8049644 <setenv@plt>
 804abd0:	c9                   	leave  
 804abd1:	c3                   	ret    
 804abd2:	8d b4 26 00 00 00 00 	lea    0x0(%esi,%eiz,1),%esi
 804abd9:	8d bc 27 00 00 00 00 	lea    0x0(%edi,%eiz,1),%edi

0804abe0 <pyi_utils_set_environment>:
 804abe0:	55                   	push   %ebp
 804abe1:	89 e5                	mov    %esp,%ebp
 804abe3:	83 ec 18             	sub    $0x18,%esp
 804abe6:	8b 45 08             	mov    0x8(%ebp),%eax
 804abe9:	80 b8 68 20 00 00 00 	cmpb   $0x0,0x2068(%eax)
 804abf0:	75 1e                	jne    804ac10 <pyi_utils_set_environment+0x30>
 804abf2:	05 68 10 00 00       	add    $0x1068,%eax
 804abf7:	89 44 24 04          	mov    %eax,0x4(%esp)
 804abfb:	c7 04 24 9a c9 05 08 	movl   $0x805c99a,(%esp)
 804ac02:	e8 a9 ff ff ff       	call   804abb0 <pyi_setenv>
 804ac07:	c9                   	leave  
 804ac08:	c3                   	ret    
 804ac09:	8d b4 26 00 00 00 00 	lea    0x0(%esi,%eiz,1),%esi
 804ac10:	05 68 20 00 00       	add    $0x2068,%eax
 804ac15:	89 44 24 04          	mov    %eax,0x4(%esp)
 804ac19:	c7 04 24 9a c9 05 08 	movl   $0x805c99a,(%esp)
 804ac20:	e8 8b ff ff ff       	call   804abb0 <pyi_setenv>
 804ac25:	c9                   	leave  
 804ac26:	c3                   	ret    
 804ac27:	89 f6                	mov    %esi,%esi
 804ac29:	8d bc 27 00 00 00 00 	lea    0x0(%edi,%eiz,1),%edi

0804ac30 <pyi_getenv>:
 804ac30:	55                   	push   %ebp
 804ac31:	89 e5                	mov    %esp,%ebp
 804ac33:	83 ec 18             	sub    $0x18,%esp
 804ac36:	8b 45 08             	mov    0x8(%ebp),%eax
 804ac39:	89 04 24             	mov    %eax,(%esp)
 804ac3c:	e8 03 e6 ff ff       	call   8049244 <getenv@plt>
 804ac41:	85 c0                	test   %eax,%eax
 804ac43:	75 0b                	jne    804ac50 <pyi_getenv+0x20>
 804ac45:	31 c0                	xor    %eax,%eax
 804ac47:	c9                   	leave  
 804ac48:	c3                   	ret    
 804ac49:	8d b4 26 00 00 00 00 	lea    0x0(%esi,%eiz,1),%esi
 804ac50:	80 38 00             	cmpb   $0x0,(%eax)
 804ac53:	74 f0                	je     804ac45 <pyi_getenv+0x15>
 804ac55:	89 45 08             	mov    %eax,0x8(%ebp)
 804ac58:	c9                   	leave  
 804ac59:	e9 a6 e9 ff ff       	jmp    8049604 <strdup@plt>
 804ac5e:	66 90                	xchg   %ax,%ax

0804ac60 <pyi_create_temp_path>:
 804ac60:	55                   	push   %ebp
 804ac61:	31 c0                	xor    %eax,%eax
 804ac63:	89 e5                	mov    %esp,%ebp
 804ac65:	57                   	push   %edi
 804ac66:	56                   	push   %esi
 804ac67:	53                   	push   %ebx
 804ac68:	83 ec 1c             	sub    $0x1c,%esp
 804ac6b:	8b 7d 08             	mov    0x8(%ebp),%edi
 804ac6e:	83 bf 68 40 00 00 01 	cmpl   $0x1,0x4068(%edi)
 804ac75:	0f 84 7f 00 00 00    	je     804acfa <pyi_create_temp_path+0x9a>
 804ac7b:	8d b7 68 20 00 00    	lea    0x2068(%edi),%esi
 804ac81:	b8 aa c9 05 08       	mov    $0x805c9aa,%eax
 804ac86:	31 db                	xor    %ebx,%ebx
 804ac88:	89 04 24             	mov    %eax,(%esp)
 804ac8b:	e8 a0 ff ff ff       	call   804ac30 <pyi_getenv>
 804ac90:	85 c0                	test   %eax,%eax
 804ac92:	74 18                	je     804acac <pyi_create_temp_path+0x4c>
 804ac94:	89 44 24 04          	mov    %eax,0x4(%esp)
 804ac98:	89 34 24             	mov    %esi,(%esp)
 804ac9b:	e8 c4 e7 ff ff       	call   8049464 <strcpy@plt>
 804aca0:	89 34 24             	mov    %esi,(%esp)
 804aca3:	e8 98 fe ff ff       	call   804ab40 <pyi_test_temp_path>
 804aca8:	85 c0                	test   %eax,%eax
 804acaa:	75 42                	jne    804acee <pyi_create_temp_path+0x8e>
 804acac:	83 c3 01             	add    $0x1,%ebx
 804acaf:	8b 04 9d 44 ca 05 08 	mov    0x805ca44(,%ebx,4),%eax
 804acb6:	85 c0                	test   %eax,%eax
 804acb8:	75 ce                	jne    804ac88 <pyi_create_temp_path+0x28>
 804acba:	b8 b5 c9 05 08       	mov    $0x805c9b5,%eax
 804acbf:	31 db                	xor    %ebx,%ebx
 804acc1:	eb 13                	jmp    804acd6 <pyi_create_temp_path+0x76>
 804acc3:	90                   	nop
 804acc4:	8d 74 26 00          	lea    0x0(%esi,%eiz,1),%esi
 804acc8:	83 c3 01             	add    $0x1,%ebx
 804accb:	8b 04 9d 34 ca 05 08 	mov    0x805ca34(,%ebx,4),%eax
 804acd2:	85 c0                	test   %eax,%eax
 804acd4:	74 32                	je     804ad08 <pyi_create_temp_path+0xa8>
 804acd6:	89 44 24 04          	mov    %eax,0x4(%esp)
 804acda:	89 34 24             	mov    %esi,(%esp)
 804acdd:	e8 82 e7 ff ff       	call   8049464 <strcpy@plt>
 804ace2:	89 34 24             	mov    %esi,(%esp)
 804ace5:	e8 56 fe ff ff       	call   804ab40 <pyi_test_temp_path>
 804acea:	85 c0                	test   %eax,%eax
 804acec:	74 da                	je     804acc8 <pyi_create_temp_path+0x68>
 804acee:	c7 87 68 40 00 00 01 	movl   $0x1,0x4068(%edi)
 804acf5:	00 00 00 
 804acf8:	31 c0                	xor    %eax,%eax
 804acfa:	83 c4 1c             	add    $0x1c,%esp
 804acfd:	5b                   	pop    %ebx
 804acfe:	5e                   	pop    %esi
 804acff:	5f                   	pop    %edi
 804ad00:	5d                   	pop    %ebp
 804ad01:	c3                   	ret    
 804ad02:	8d b6 00 00 00 00    	lea    0x0(%esi),%esi
 804ad08:	c7 04 24 00 ca 05 08 	movl   $0x805ca00,(%esp)
 804ad0f:	e8 2c 08 01 00       	call   805b540 <stbprint>
 804ad14:	83 c4 1c             	add    $0x1c,%esp
 804ad17:	b8 ff ff ff ff       	mov    $0xffffffff,%eax
 804ad1c:	5b                   	pop    %ebx
 804ad1d:	5e                   	pop    %esi
 804ad1e:	5f                   	pop    %edi
 804ad1f:	5d                   	pop    %ebp
 804ad20:	c3                   	ret    
 804ad21:	90                   	nop
 804ad22:	90                   	nop
 804ad23:	90                   	nop
 804ad24:	90                   	nop
 804ad25:	90                   	nop
 804ad26:	90                   	nop
 804ad27:	90                   	nop
 804ad28:	90                   	nop
 804ad29:	90                   	nop
 804ad2a:	90                   	nop
 804ad2b:	90                   	nop
 804ad2c:	90                   	nop
 804ad2d:	90                   	nop
 804ad2e:	90                   	nop
 804ad2f:	90                   	nop

0804ad30 <pyi_python_map_names>:
 804ad30:	55                   	push   %ebp
 804ad31:	89 e5                	mov    %esp,%ebp
 804ad33:	53                   	push   %ebx
 804ad34:	83 ec 14             	sub    $0x14,%esp
 804ad37:	8b 5d 08             	mov    0x8(%ebp),%ebx
 804ad3a:	c7 44 24 04 54 ca 05 	movl   $0x805ca54,0x4(%esp)
 804ad41:	08 
 804ad42:	89 1c 24             	mov    %ebx,(%esp)
 804ad45:	e8 ea e5 ff ff       	call   8049334 <dlsym@plt>
 804ad4a:	85 c0                	test   %eax,%eax
 804ad4c:	a3 34 03 06 08       	mov    %eax,0x8060334
 804ad51:	0f 84 46 04 00 00    	je     804b19d <pyi_python_map_names+0x46d>
 804ad57:	c7 44 24 04 62 ca 05 	movl   $0x805ca62,0x4(%esp)
 804ad5e:	08 
 804ad5f:	89 1c 24             	mov    %ebx,(%esp)
 804ad62:	e8 cd e5 ff ff       	call   8049334 <dlsym@plt>
 804ad67:	85 c0                	test   %eax,%eax
 804ad69:	a3 38 03 06 08       	mov    %eax,0x8060338
 804ad6e:	0f 84 4f 04 00 00    	je     804b1c3 <pyi_python_map_names+0x493>
 804ad74:	c7 44 24 04 70 ca 05 	movl   $0x805ca70,0x4(%esp)
 804ad7b:	08 
 804ad7c:	89 1c 24             	mov    %ebx,(%esp)
 804ad7f:	e8 b0 e5 ff ff       	call   8049334 <dlsym@plt>
 804ad84:	85 c0                	test   %eax,%eax
 804ad86:	a3 3c 03 06 08       	mov    %eax,0x806033c
 804ad8b:	0f 84 1f 04 00 00    	je     804b1b0 <pyi_python_map_names+0x480>
 804ad91:	c7 44 24 04 80 ca 05 	movl   $0x805ca80,0x4(%esp)
 804ad98:	08 
 804ad99:	89 1c 24             	mov    %ebx,(%esp)
 804ad9c:	e8 93 e5 ff ff       	call   8049334 <dlsym@plt>
 804ada1:	85 c0                	test   %eax,%eax
 804ada3:	a3 40 03 06 08       	mov    %eax,0x8060340
 804ada8:	0f 84 3b 04 00 00    	je     804b1e9 <pyi_python_map_names+0x4b9>
 804adae:	c7 44 24 04 8f ca 05 	movl   $0x805ca8f,0x4(%esp)
 804adb5:	08 
 804adb6:	89 1c 24             	mov    %ebx,(%esp)
 804adb9:	e8 76 e5 ff ff       	call   8049334 <dlsym@plt>
 804adbe:	85 c0                	test   %eax,%eax
 804adc0:	a3 44 03 06 08       	mov    %eax,0x8060344
 804adc5:	0f 84 0b 04 00 00    	je     804b1d6 <pyi_python_map_names+0x4a6>
 804adcb:	c7 44 24 04 ae ca 05 	movl   $0x805caae,0x4(%esp)
 804add2:	08 
 804add3:	89 1c 24             	mov    %ebx,(%esp)
 804add6:	e8 59 e5 ff ff       	call   8049334 <dlsym@plt>
 804addb:	85 c0                	test   %eax,%eax
 804addd:	a3 48 03 06 08       	mov    %eax,0x8060348
 804ade2:	0f 84 27 04 00 00    	je     804b20f <pyi_python_map_names+0x4df>
 804ade8:	c7 44 24 04 ba ca 05 	movl   $0x805caba,0x4(%esp)
 804adef:	08 
 804adf0:	89 1c 24             	mov    %ebx,(%esp)
 804adf3:	e8 3c e5 ff ff       	call   8049334 <dlsym@plt>
 804adf8:	c7 44 24 04 c4 ca 05 	movl   $0x805cac4,0x4(%esp)
 804adff:	08 
 804ae00:	89 1c 24             	mov    %ebx,(%esp)
 804ae03:	a3 4c 03 06 08       	mov    %eax,0x806034c
 804ae08:	e8 27 e5 ff ff       	call   8049334 <dlsym@plt>
 804ae0d:	c7 44 24 04 ce ca 05 	movl   $0x805cace,0x4(%esp)
 804ae14:	08 
 804ae15:	89 1c 24             	mov    %ebx,(%esp)
 804ae18:	a3 50 03 06 08       	mov    %eax,0x8060350
 804ae1d:	e8 12 e5 ff ff       	call   8049334 <dlsym@plt>
 804ae22:	85 c0                	test   %eax,%eax
 804ae24:	a3 54 03 06 08       	mov    %eax,0x8060354
 804ae29:	0f 84 cd 03 00 00    	je     804b1fc <pyi_python_map_names+0x4cc>
 804ae2f:	c7 44 24 04 df ca 05 	movl   $0x805cadf,0x4(%esp)
 804ae36:	08 
 804ae37:	89 1c 24             	mov    %ebx,(%esp)
 804ae3a:	e8 f5 e4 ff ff       	call   8049334 <dlsym@plt>
 804ae3f:	85 c0                	test   %eax,%eax
 804ae41:	a3 58 03 06 08       	mov    %eax,0x8060358
 804ae46:	0f 84 ef 03 00 00    	je     804b23b <pyi_python_map_names+0x50b>
 804ae4c:	c7 44 24 04 f7 ca 05 	movl   $0x805caf7,0x4(%esp)
 804ae53:	08 
 804ae54:	89 1c 24             	mov    %ebx,(%esp)
 804ae57:	e8 d8 e4 ff ff       	call   8049334 <dlsym@plt>
 804ae5c:	85 c0                	test   %eax,%eax
 804ae5e:	a3 5c 03 06 08       	mov    %eax,0x806035c
 804ae63:	0f 84 bc 03 00 00    	je     804b225 <pyi_python_map_names+0x4f5>
 804ae69:	c7 44 24 04 0a cb 05 	movl   $0x805cb0a,0x4(%esp)
 804ae70:	08 
 804ae71:	89 1c 24             	mov    %ebx,(%esp)
 804ae74:	e8 bb e4 ff ff       	call   8049334 <dlsym@plt>
 804ae79:	85 c0                	test   %eax,%eax
 804ae7b:	a3 80 03 06 08       	mov    %eax,0x8060380
 804ae80:	0f 84 e1 03 00 00    	je     804b267 <pyi_python_map_names+0x537>
 804ae86:	c7 44 24 04 25 cb 05 	movl   $0x805cb25,0x4(%esp)
 804ae8d:	08 
 804ae8e:	89 1c 24             	mov    %ebx,(%esp)
 804ae91:	e8 9e e4 ff ff       	call   8049334 <dlsym@plt>
 804ae96:	85 c0                	test   %eax,%eax
 804ae98:	a3 60 03 06 08       	mov    %eax,0x8060360
 804ae9d:	0f 84 ae 03 00 00    	je     804b251 <pyi_python_map_names+0x521>
 804aea3:	c7 44 24 04 33 cb 05 	movl   $0x805cb33,0x4(%esp)
 804aeaa:	08 
 804aeab:	89 1c 24             	mov    %ebx,(%esp)
 804aeae:	e8 81 e4 ff ff       	call   8049334 <dlsym@plt>
 804aeb3:	85 c0                	test   %eax,%eax
 804aeb5:	a3 64 03 06 08       	mov    %eax,0x8060364
 804aeba:	0f 84 d3 03 00 00    	je     804b293 <pyi_python_map_names+0x563>
 804aec0:	c7 44 24 04 45 cb 05 	movl   $0x805cb45,0x4(%esp)
 804aec7:	08 
 804aec8:	89 1c 24             	mov    %ebx,(%esp)
 804aecb:	e8 64 e4 ff ff       	call   8049334 <dlsym@plt>
 804aed0:	85 c0                	test   %eax,%eax
 804aed2:	a3 68 03 06 08       	mov    %eax,0x8060368
 804aed7:	0f 84 a0 03 00 00    	je     804b27d <pyi_python_map_names+0x54d>
 804aedd:	c7 44 24 04 5b cb 05 	movl   $0x805cb5b,0x4(%esp)
 804aee4:	08 
 804aee5:	89 1c 24             	mov    %ebx,(%esp)
 804aee8:	e8 47 e4 ff ff       	call   8049334 <dlsym@plt>
 804aeed:	85 c0                	test   %eax,%eax
 804aeef:	a3 6c 03 06 08       	mov    %eax,0x806036c
 804aef4:	0f 84 c5 03 00 00    	je     804b2bf <pyi_python_map_names+0x58f>
 804aefa:	c7 44 24 04 6e cb 05 	movl   $0x805cb6e,0x4(%esp)
 804af01:	08 
 804af02:	89 1c 24             	mov    %ebx,(%esp)
 804af05:	e8 2a e4 ff ff       	call   8049334 <dlsym@plt>
 804af0a:	85 c0                	test   %eax,%eax
 804af0c:	a3 70 03 06 08       	mov    %eax,0x8060370
 804af11:	0f 84 92 03 00 00    	je     804b2a9 <pyi_python_map_names+0x579>
 804af17:	c7 44 24 04 96 cb 05 	movl   $0x805cb96,0x4(%esp)
 804af1e:	08 
 804af1f:	89 1c 24             	mov    %ebx,(%esp)
 804af22:	e8 0d e4 ff ff       	call   8049334 <dlsym@plt>
 804af27:	85 c0                	test   %eax,%eax
 804af29:	a3 74 03 06 08       	mov    %eax,0x8060374
 804af2e:	0f 84 b7 03 00 00    	je     804b2eb <pyi_python_map_names+0x5bb>
 804af34:	c7 44 24 04 a1 cb 05 	movl   $0x805cba1,0x4(%esp)
 804af3b:	08 
 804af3c:	89 1c 24             	mov    %ebx,(%esp)
 804af3f:	e8 f0 e3 ff ff       	call   8049334 <dlsym@plt>
 804af44:	85 c0                	test   %eax,%eax
 804af46:	a3 78 03 06 08       	mov    %eax,0x8060378
 804af4b:	0f 84 84 03 00 00    	je     804b2d5 <pyi_python_map_names+0x5a5>
 804af51:	c7 44 24 04 af cb 05 	movl   $0x805cbaf,0x4(%esp)
 804af58:	08 
 804af59:	89 1c 24             	mov    %ebx,(%esp)
 804af5c:	e8 d3 e3 ff ff       	call   8049334 <dlsym@plt>
 804af61:	85 c0                	test   %eax,%eax
 804af63:	a3 7c 03 06 08       	mov    %eax,0x806037c
 804af68:	0f 84 bf 03 00 00    	je     804b32d <pyi_python_map_names+0x5fd>
 804af6e:	c7 44 24 04 bd cb 05 	movl   $0x805cbbd,0x4(%esp)
 804af75:	08 
 804af76:	89 1c 24             	mov    %ebx,(%esp)
 804af79:	e8 b6 e3 ff ff       	call   8049334 <dlsym@plt>
 804af7e:	85 c0                	test   %eax,%eax
 804af80:	a3 84 03 06 08       	mov    %eax,0x8060384
 804af85:	0f 84 8c 03 00 00    	je     804b317 <pyi_python_map_names+0x5e7>
 804af8b:	c7 44 24 04 cf cb 05 	movl   $0x805cbcf,0x4(%esp)
 804af92:	08 
 804af93:	89 1c 24             	mov    %ebx,(%esp)
 804af96:	e8 99 e3 ff ff       	call   8049334 <dlsym@plt>
 804af9b:	85 c0                	test   %eax,%eax
 804af9d:	a3 88 03 06 08       	mov    %eax,0x8060388
 804afa2:	0f 84 59 03 00 00    	je     804b301 <pyi_python_map_names+0x5d1>
 804afa8:	c7 44 24 04 e1 cb 05 	movl   $0x805cbe1,0x4(%esp)
 804afaf:	08 
 804afb0:	89 1c 24             	mov    %ebx,(%esp)
 804afb3:	e8 7c e3 ff ff       	call   8049334 <dlsym@plt>
 804afb8:	85 c0                	test   %eax,%eax
 804afba:	a3 8c 03 06 08       	mov    %eax,0x806038c
 804afbf:	0f 84 7e 03 00 00    	je     804b343 <pyi_python_map_names+0x613>
 804afc5:	c7 44 24 04 f7 cb 05 	movl   $0x805cbf7,0x4(%esp)
 804afcc:	08 
 804afcd:	89 1c 24             	mov    %ebx,(%esp)
 804afd0:	e8 5f e3 ff ff       	call   8049334 <dlsym@plt>
 804afd5:	85 c0                	test   %eax,%eax
 804afd7:	a3 90 03 06 08       	mov    %eax,0x8060390
 804afdc:	0f 84 77 03 00 00    	je     804b359 <pyi_python_map_names+0x629>
 804afe2:	c7 44 24 04 08 cc 05 	movl   $0x805cc08,0x4(%esp)
 804afe9:	08 
 804afea:	89 1c 24             	mov    %ebx,(%esp)
 804afed:	e8 42 e3 ff ff       	call   8049334 <dlsym@plt>
 804aff2:	85 c0                	test   %eax,%eax
 804aff4:	a3 94 03 06 08       	mov    %eax,0x8060394
 804aff9:	0f 84 70 03 00 00    	je     804b36f <pyi_python_map_names+0x63f>
 804afff:	c7 44 24 04 2e cc 05 	movl   $0x805cc2e,0x4(%esp)
 804b006:	08 
 804b007:	89 1c 24             	mov    %ebx,(%esp)
 804b00a:	e8 25 e3 ff ff       	call   8049334 <dlsym@plt>
 804b00f:	85 c0                	test   %eax,%eax
 804b011:	a3 98 03 06 08       	mov    %eax,0x8060398
 804b016:	0f 84 69 03 00 00    	je     804b385 <pyi_python_map_names+0x655>
 804b01c:	c7 44 24 04 3a cc 05 	movl   $0x805cc3a,0x4(%esp)
 804b023:	08 
 804b024:	89 1c 24             	mov    %ebx,(%esp)
 804b027:	e8 08 e3 ff ff       	call   8049334 <dlsym@plt>
 804b02c:	85 c0                	test   %eax,%eax
 804b02e:	a3 9c 03 06 08       	mov    %eax,0x806039c
 804b033:	0f 84 62 03 00 00    	je     804b39b <pyi_python_map_names+0x66b>
 804b039:	c7 44 24 04 5a cc 05 	movl   $0x805cc5a,0x4(%esp)
 804b040:	08 
 804b041:	89 1c 24             	mov    %ebx,(%esp)
 804b044:	e8 eb e2 ff ff       	call   8049334 <dlsym@plt>
 804b049:	85 c0                	test   %eax,%eax
 804b04b:	a3 a0 03 06 08       	mov    %eax,0x80603a0
 804b050:	0f 84 5b 03 00 00    	je     804b3b1 <pyi_python_map_names+0x681>
 804b056:	c7 44 24 04 66 cc 05 	movl   $0x805cc66,0x4(%esp)
 804b05d:	08 
 804b05e:	89 1c 24             	mov    %ebx,(%esp)
 804b061:	e8 ce e2 ff ff       	call   8049334 <dlsym@plt>
 804b066:	85 c0                	test   %eax,%eax
 804b068:	a3 a4 03 06 08       	mov    %eax,0x80603a4
 804b06d:	0f 84 54 03 00 00    	je     804b3c7 <pyi_python_map_names+0x697>
 804b073:	c7 44 24 04 7a cc 05 	movl   $0x805cc7a,0x4(%esp)
 804b07a:	08 
 804b07b:	89 1c 24             	mov    %ebx,(%esp)
 804b07e:	e8 b1 e2 ff ff       	call   8049334 <dlsym@plt>
 804b083:	85 c0                	test   %eax,%eax
 804b085:	a3 a8 03 06 08       	mov    %eax,0x80603a8
 804b08a:	0f 84 4d 03 00 00    	je     804b3dd <pyi_python_map_names+0x6ad>
 804b090:	c7 44 24 04 8e cc 05 	movl   $0x805cc8e,0x4(%esp)
 804b097:	08 
 804b098:	89 1c 24             	mov    %ebx,(%esp)
 804b09b:	e8 94 e2 ff ff       	call   8049334 <dlsym@plt>
 804b0a0:	85 c0                	test   %eax,%eax
 804b0a2:	a3 ac 03 06 08       	mov    %eax,0x80603ac
 804b0a7:	0f 84 46 03 00 00    	je     804b3f3 <pyi_python_map_names+0x6c3>
 804b0ad:	c7 44 24 04 a2 cc 05 	movl   $0x805cca2,0x4(%esp)
 804b0b4:	08 
 804b0b5:	89 1c 24             	mov    %ebx,(%esp)
 804b0b8:	e8 77 e2 ff ff       	call   8049334 <dlsym@plt>
 804b0bd:	85 c0                	test   %eax,%eax
 804b0bf:	a3 b0 03 06 08       	mov    %eax,0x80603b0
 804b0c4:	0f 84 55 03 00 00    	je     804b41f <pyi_python_map_names+0x6ef>
 804b0ca:	c7 44 24 04 b5 cc 05 	movl   $0x805ccb5,0x4(%esp)
 804b0d1:	08 
 804b0d2:	89 1c 24             	mov    %ebx,(%esp)
 804b0d5:	e8 5a e2 ff ff       	call   8049334 <dlsym@plt>
 804b0da:	85 c0                	test   %eax,%eax
 804b0dc:	a3 b4 03 06 08       	mov    %eax,0x80603b4
 804b0e1:	0f 84 22 03 00 00    	je     804b409 <pyi_python_map_names+0x6d9>
 804b0e7:	c7 44 24 04 ca cc 05 	movl   $0x805ccca,0x4(%esp)
 804b0ee:	08 
 804b0ef:	89 1c 24             	mov    %ebx,(%esp)
 804b0f2:	e8 3d e2 ff ff       	call   8049334 <dlsym@plt>
 804b0f7:	85 c0                	test   %eax,%eax
 804b0f9:	a3 b8 03 06 08       	mov    %eax,0x80603b8
 804b0fe:	0f 84 47 03 00 00    	je     804b44b <pyi_python_map_names+0x71b>
 804b104:	c7 44 24 04 df cc 05 	movl   $0x805ccdf,0x4(%esp)
 804b10b:	08 
 804b10c:	89 1c 24             	mov    %ebx,(%esp)
 804b10f:	e8 20 e2 ff ff       	call   8049334 <dlsym@plt>
 804b114:	85 c0                	test   %eax,%eax
 804b116:	a3 bc 03 06 08       	mov    %eax,0x80603bc
 804b11b:	0f 84 14 03 00 00    	je     804b435 <pyi_python_map_names+0x705>
 804b121:	c7 44 24 04 f2 cc 05 	movl   $0x805ccf2,0x4(%esp)
 804b128:	08 
 804b129:	89 1c 24             	mov    %ebx,(%esp)
 804b12c:	e8 03 e2 ff ff       	call   8049334 <dlsym@plt>
 804b131:	85 c0                	test   %eax,%eax
 804b133:	a3 c0 03 06 08       	mov    %eax,0x80603c0
 804b138:	0f 84 39 03 00 00    	je     804b477 <pyi_python_map_names+0x747>
 804b13e:	c7 44 24 04 04 cd 05 	movl   $0x805cd04,0x4(%esp)
 804b145:	08 
 804b146:	89 1c 24             	mov    %ebx,(%esp)
 804b149:	e8 e6 e1 ff ff       	call   8049334 <dlsym@plt>
 804b14e:	85 c0                	test   %eax,%eax
 804b150:	a3 c4 03 06 08       	mov    %eax,0x80603c4
 804b155:	0f 84 06 03 00 00    	je     804b461 <pyi_python_map_names+0x731>
 804b15b:	c7 44 24 04 27 cd 05 	movl   $0x805cd27,0x4(%esp)
 804b162:	08 
 804b163:	89 1c 24             	mov    %ebx,(%esp)
 804b166:	e8 c9 e1 ff ff       	call   8049334 <dlsym@plt>
 804b16b:	85 c0                	test   %eax,%eax
 804b16d:	a3 c8 03 06 08       	mov    %eax,0x80603c8
 804b172:	0f 84 15 03 00 00    	je     804b48d <pyi_python_map_names+0x75d>
 804b178:	c7 44 24 04 34 cd 05 	movl   $0x805cd34,0x4(%esp)
 804b17f:	08 
 804b180:	89 1c 24             	mov    %ebx,(%esp)
 804b183:	e8 ac e1 ff ff       	call   8049334 <dlsym@plt>
 804b188:	85 c0                	test   %eax,%eax
 804b18a:	a3 cc 03 06 08       	mov    %eax,0x80603cc
 804b18f:	0f 84 0e 03 00 00    	je     804b4a3 <pyi_python_map_names+0x773>
 804b195:	31 c0                	xor    %eax,%eax
 804b197:	83 c4 14             	add    $0x14,%esp
 804b19a:	5b                   	pop    %ebx
 804b19b:	5d                   	pop    %ebp
 804b19c:	c3                   	ret    
 804b19d:	c7 04 24 44 cd 05 08 	movl   $0x805cd44,(%esp)
 804b1a4:	e8 97 03 01 00       	call   805b540 <stbprint>
 804b1a9:	b8 ff ff ff ff       	mov    $0xffffffff,%eax
 804b1ae:	eb e7                	jmp    804b197 <pyi_python_map_names+0x467>
 804b1b0:	c7 04 24 84 cd 05 08 	movl   $0x805cd84,(%esp)
 804b1b7:	e8 84 03 01 00       	call   805b540 <stbprint>
 804b1bc:	b8 ff ff ff ff       	mov    $0xffffffff,%eax
 804b1c1:	eb d4                	jmp    804b197 <pyi_python_map_names+0x467>
 804b1c3:	c7 04 24 64 cd 05 08 	movl   $0x805cd64,(%esp)
 804b1ca:	e8 71 03 01 00       	call   805b540 <stbprint>
 804b1cf:	b8 ff ff ff ff       	mov    $0xffffffff,%eax
 804b1d4:	eb c1                	jmp    804b197 <pyi_python_map_names+0x467>
 804b1d6:	c7 04 24 c8 cd 05 08 	movl   $0x805cdc8,(%esp)
 804b1dd:	e8 5e 03 01 00       	call   805b540 <stbprint>
 804b1e2:	b8 ff ff ff ff       	mov    $0xffffffff,%eax
 804b1e7:	eb ae                	jmp    804b197 <pyi_python_map_names+0x467>
 804b1e9:	c7 04 24 a8 cd 05 08 	movl   $0x805cda8,(%esp)
 804b1f0:	e8 4b 03 01 00       	call   805b540 <stbprint>
 804b1f5:	b8 ff ff ff ff       	mov    $0xffffffff,%eax
 804b1fa:	eb 9b                	jmp    804b197 <pyi_python_map_names+0x467>
 804b1fc:	c7 04 24 e8 cd 05 08 	movl   $0x805cde8,(%esp)
 804b203:	e8 38 03 01 00       	call   805b540 <stbprint>
 804b208:	b8 ff ff ff ff       	mov    $0xffffffff,%eax
 804b20d:	eb 88                	jmp    804b197 <pyi_python_map_names+0x467>
 804b20f:	c7 04 24 9d ca 05 08 	movl   $0x805ca9d,(%esp)
 804b216:	e8 25 03 01 00       	call   805b540 <stbprint>
 804b21b:	b8 ff ff ff ff       	mov    $0xffffffff,%eax
 804b220:	e9 72 ff ff ff       	jmp    804b197 <pyi_python_map_names+0x467>
 804b225:	c7 04 24 38 ce 05 08 	movl   $0x805ce38,(%esp)
 804b22c:	e8 0f 03 01 00       	call   805b540 <stbprint>
 804b231:	b8 ff ff ff ff       	mov    $0xffffffff,%eax
 804b236:	e9 5c ff ff ff       	jmp    804b197 <pyi_python_map_names+0x467>
 804b23b:	c7 04 24 0c ce 05 08 	movl   $0x805ce0c,(%esp)
 804b242:	e8 f9 02 01 00       	call   805b540 <stbprint>
 804b247:	b8 ff ff ff ff       	mov    $0xffffffff,%eax
 804b24c:	e9 46 ff ff ff       	jmp    804b197 <pyi_python_map_names+0x467>
 804b251:	c7 04 24 88 ce 05 08 	movl   $0x805ce88,(%esp)
 804b258:	e8 e3 02 01 00       	call   805b540 <stbprint>
 804b25d:	b8 ff ff ff ff       	mov    $0xffffffff,%eax
 804b262:	e9 30 ff ff ff       	jmp    804b197 <pyi_python_map_names+0x467>
 804b267:	c7 04 24 5c ce 05 08 	movl   $0x805ce5c,(%esp)
 804b26e:	e8 cd 02 01 00       	call   805b540 <stbprint>
 804b273:	b8 ff ff ff ff       	mov    $0xffffffff,%eax
 804b278:	e9 1a ff ff ff       	jmp    804b197 <pyi_python_map_names+0x467>
 804b27d:	c7 04 24 cc ce 05 08 	movl   $0x805cecc,(%esp)
 804b284:	e8 b7 02 01 00       	call   805b540 <stbprint>
 804b289:	b8 ff ff ff ff       	mov    $0xffffffff,%eax
 804b28e:	e9 04 ff ff ff       	jmp    804b197 <pyi_python_map_names+0x467>
 804b293:	c7 04 24 a8 ce 05 08 	movl   $0x805cea8,(%esp)
 804b29a:	e8 a1 02 01 00       	call   805b540 <stbprint>
 804b29f:	b8 ff ff ff ff       	mov    $0xffffffff,%eax
 804b2a4:	e9 ee fe ff ff       	jmp    804b197 <pyi_python_map_names+0x467>
 804b2a9:	c7 04 24 18 cf 05 08 	movl   $0x805cf18,(%esp)
 804b2b0:	e8 8b 02 01 00       	call   805b540 <stbprint>
 804b2b5:	b8 ff ff ff ff       	mov    $0xffffffff,%eax
 804b2ba:	e9 d8 fe ff ff       	jmp    804b197 <pyi_python_map_names+0x467>
 804b2bf:	c7 04 24 f4 ce 05 08 	movl   $0x805cef4,(%esp)
 804b2c6:	e8 75 02 01 00       	call   805b540 <stbprint>
 804b2cb:	b8 ff ff ff ff       	mov    $0xffffffff,%eax
 804b2d0:	e9 c2 fe ff ff       	jmp    804b197 <pyi_python_map_names+0x467>
 804b2d5:	c7 04 24 40 cf 05 08 	movl   $0x805cf40,(%esp)
 804b2dc:	e8 5f 02 01 00       	call   805b540 <stbprint>
 804b2e1:	b8 ff ff ff ff       	mov    $0xffffffff,%eax
 804b2e6:	e9 ac fe ff ff       	jmp    804b197 <pyi_python_map_names+0x467>
 804b2eb:	c7 04 24 85 cb 05 08 	movl   $0x805cb85,(%esp)
 804b2f2:	e8 49 02 01 00       	call   805b540 <stbprint>
 804b2f7:	b8 ff ff ff ff       	mov    $0xffffffff,%eax
 804b2fc:	e9 96 fe ff ff       	jmp    804b197 <pyi_python_map_names+0x467>
 804b301:	c7 04 24 a4 cf 05 08 	movl   $0x805cfa4,(%esp)
 804b308:	e8 33 02 01 00       	call   805b540 <stbprint>
 804b30d:	b8 ff ff ff ff       	mov    $0xffffffff,%eax
 804b312:	e9 80 fe ff ff       	jmp    804b197 <pyi_python_map_names+0x467>
 804b317:	c7 04 24 80 cf 05 08 	movl   $0x805cf80,(%esp)
 804b31e:	e8 1d 02 01 00       	call   805b540 <stbprint>
 804b323:	b8 ff ff ff ff       	mov    $0xffffffff,%eax
 804b328:	e9 6a fe ff ff       	jmp    804b197 <pyi_python_map_names+0x467>
 804b32d:	c7 04 24 60 cf 05 08 	movl   $0x805cf60,(%esp)
 804b334:	e8 07 02 01 00       	call   805b540 <stbprint>
 804b339:	b8 ff ff ff ff       	mov    $0xffffffff,%eax
 804b33e:	e9 54 fe ff ff       	jmp    804b197 <pyi_python_map_names+0x467>
 804b343:	c7 04 24 c8 cf 05 08 	movl   $0x805cfc8,(%esp)
 804b34a:	e8 f1 01 01 00       	call   805b540 <stbprint>
 804b34f:	b8 ff ff ff ff       	mov    $0xffffffff,%eax
 804b354:	e9 3e fe ff ff       	jmp    804b197 <pyi_python_map_names+0x467>
 804b359:	c7 04 24 f0 cf 05 08 	movl   $0x805cff0,(%esp)
 804b360:	e8 db 01 01 00       	call   805b540 <stbprint>
 804b365:	b8 ff ff ff ff       	mov    $0xffffffff,%eax
 804b36a:	e9 28 fe ff ff       	jmp    804b197 <pyi_python_map_names+0x467>
 804b36f:	c7 04 24 14 d0 05 08 	movl   $0x805d014,(%esp)
 804b376:	e8 c5 01 01 00       	call   805b540 <stbprint>
 804b37b:	b8 ff ff ff ff       	mov    $0xffffffff,%eax
 804b380:	e9 12 fe ff ff       	jmp    804b197 <pyi_python_map_names+0x467>
 804b385:	c7 04 24 1d cc 05 08 	movl   $0x805cc1d,(%esp)
 804b38c:	e8 af 01 01 00       	call   805b540 <stbprint>
 804b391:	b8 ff ff ff ff       	mov    $0xffffffff,%eax
 804b396:	e9 fc fd ff ff       	jmp    804b197 <pyi_python_map_names+0x467>
 804b39b:	c7 04 24 3c d0 05 08 	movl   $0x805d03c,(%esp)
 804b3a2:	e8 99 01 01 00       	call   805b540 <stbprint>
 804b3a7:	b8 ff ff ff ff       	mov    $0xffffffff,%eax
 804b3ac:	e9 e6 fd ff ff       	jmp    804b197 <pyi_python_map_names+0x467>
 804b3b1:	c7 04 24 49 cc 05 08 	movl   $0x805cc49,(%esp)
 804b3b8:	e8 83 01 01 00       	call   805b540 <stbprint>
 804b3bd:	b8 ff ff ff ff       	mov    $0xffffffff,%eax
 804b3c2:	e9 d0 fd ff ff       	jmp    804b197 <pyi_python_map_names+0x467>
 804b3c7:	c7 04 24 5c d0 05 08 	movl   $0x805d05c,(%esp)
 804b3ce:	e8 6d 01 01 00       	call   805b540 <stbprint>
 804b3d3:	b8 ff ff ff ff       	mov    $0xffffffff,%eax
 804b3d8:	e9 ba fd ff ff       	jmp    804b197 <pyi_python_map_names+0x467>
 804b3dd:	c7 04 24 84 d0 05 08 	movl   $0x805d084,(%esp)
 804b3e4:	e8 57 01 01 00       	call   805b540 <stbprint>
 804b3e9:	b8 ff ff ff ff       	mov    $0xffffffff,%eax
 804b3ee:	e9 a4 fd ff ff       	jmp    804b197 <pyi_python_map_names+0x467>
 804b3f3:	c7 04 24 ac d0 05 08 	movl   $0x805d0ac,(%esp)
 804b3fa:	e8 41 01 01 00       	call   805b540 <stbprint>
 804b3ff:	b8 ff ff ff ff       	mov    $0xffffffff,%eax
 804b404:	e9 8e fd ff ff       	jmp    804b197 <pyi_python_map_names+0x467>
 804b409:	c7 04 24 f8 d0 05 08 	movl   $0x805d0f8,(%esp)
 804b410:	e8 2b 01 01 00       	call   805b540 <stbprint>
 804b415:	b8 ff ff ff ff       	mov    $0xffffffff,%eax
 804b41a:	e9 78 fd ff ff       	jmp    804b197 <pyi_python_map_names+0x467>
 804b41f:	c7 04 24 d4 d0 05 08 	movl   $0x805d0d4,(%esp)
 804b426:	e8 15 01 01 00       	call   805b540 <stbprint>
 804b42b:	b8 ff ff ff ff       	mov    $0xffffffff,%eax
 804b430:	e9 62 fd ff ff       	jmp    804b197 <pyi_python_map_names+0x467>
 804b435:	c7 04 24 48 d1 05 08 	movl   $0x805d148,(%esp)
 804b43c:	e8 ff 00 01 00       	call   805b540 <stbprint>
 804b441:	b8 ff ff ff ff       	mov    $0xffffffff,%eax
 804b446:	e9 4c fd ff ff       	jmp    804b197 <pyi_python_map_names+0x467>
 804b44b:	c7 04 24 20 d1 05 08 	movl   $0x805d120,(%esp)
 804b452:	e8 e9 00 01 00       	call   805b540 <stbprint>
 804b457:	b8 ff ff ff ff       	mov    $0xffffffff,%eax
 804b45c:	e9 36 fd ff ff       	jmp    804b197 <pyi_python_map_names+0x467>
 804b461:	c7 04 24 90 d1 05 08 	movl   $0x805d190,(%esp)
 804b468:	e8 d3 00 01 00       	call   805b540 <stbprint>
 804b46d:	b8 ff ff ff ff       	mov    $0xffffffff,%eax
 804b472:	e9 20 fd ff ff       	jmp    804b197 <pyi_python_map_names+0x467>
 804b477:	c7 04 24 6c d1 05 08 	movl   $0x805d16c,(%esp)
 804b47e:	e8 bd 00 01 00       	call   805b540 <stbprint>
 804b483:	b8 ff ff ff ff       	mov    $0xffffffff,%eax
 804b488:	e9 0a fd ff ff       	jmp    804b197 <pyi_python_map_names+0x467>
 804b48d:	c7 04 24 16 cd 05 08 	movl   $0x805cd16,(%esp)
 804b494:	e8 a7 00 01 00       	call   805b540 <stbprint>
 804b499:	b8 ff ff ff ff       	mov    $0xffffffff,%eax
 804b49e:	e9 f4 fc ff ff       	jmp    804b197 <pyi_python_map_names+0x467>
 804b4a3:	c7 04 24 b4 d1 05 08 	movl   $0x805d1b4,(%esp)
 804b4aa:	e8 91 00 01 00       	call   805b540 <stbprint>
 804b4af:	b8 ff ff ff ff       	mov    $0xffffffff,%eax
 804b4b4:	e9 de fc ff ff       	jmp    804b197 <pyi_python_map_names+0x467>
 804b4b9:	90                   	nop
 804b4ba:	90                   	nop
 804b4bb:	90                   	nop
 804b4bc:	90                   	nop
 804b4bd:	90                   	nop
 804b4be:	90                   	nop
 804b4bf:	90                   	nop

0804b4c0 <getFirstTocEntry>:
 804b4c0:	55                   	push   %ebp
 804b4c1:	89 e5                	mov    %esp,%ebp
 804b4c3:	8b 45 08             	mov    0x8(%ebp),%eax
 804b4c6:	5d                   	pop    %ebp
 804b4c7:	8b 40 08             	mov    0x8(%eax),%eax
 804b4ca:	c3                   	ret    
 804b4cb:	90                   	nop
 804b4cc:	8d 74 26 00          	lea    0x0(%esi,%eiz,1),%esi

0804b4d0 <pyi_arch_status_free_memory>:
 804b4d0:	55                   	push   %ebp
 804b4d1:	89 e5                	mov    %esp,%ebp
 804b4d3:	53                   	push   %ebx
 804b4d4:	83 ec 14             	sub    $0x14,%esp
 804b4d7:	8b 5d 08             	mov    0x8(%ebp),%ebx
 804b4da:	85 db                	test   %ebx,%ebx
 804b4dc:	74 22                	je     804b500 <pyi_arch_status_free_memory+0x30>
 804b4de:	8b 43 08             	mov    0x8(%ebx),%eax
 804b4e1:	85 c0                	test   %eax,%eax
 804b4e3:	74 08                	je     804b4ed <pyi_arch_status_free_memory+0x1d>
 804b4e5:	89 04 24             	mov    %eax,(%esp)
 804b4e8:	e8 37 de ff ff       	call   8049324 <free@plt>
 804b4ed:	89 5d 08             	mov    %ebx,0x8(%ebp)
 804b4f0:	83 c4 14             	add    $0x14,%esp
 804b4f3:	5b                   	pop    %ebx
 804b4f4:	5d                   	pop    %ebp
 804b4f5:	e9 2a de ff ff       	jmp    8049324 <free@plt>
 804b4fa:	8d b6 00 00 00 00    	lea    0x0(%esi),%esi
 804b500:	83 c4 14             	add    $0x14,%esp
 804b503:	5b                   	pop    %ebx
 804b504:	5d                   	pop    %ebp
 804b505:	c3                   	ret    
 804b506:	8d 76 00             	lea    0x0(%esi),%esi
 804b509:	8d bc 27 00 00 00 00 	lea    0x0(%edi,%eiz,1),%edi

0804b510 <pyi_arch_get_pyversion>:
 804b510:	55                   	push   %ebp
 804b511:	89 e5                	mov    %esp,%ebp
 804b513:	83 ec 08             	sub    $0x8,%esp
 804b516:	8b 45 08             	mov    0x8(%ebp),%eax
 804b519:	8b 40 24             	mov    0x24(%eax),%eax
 804b51c:	89 45 08             	mov    %eax,0x8(%ebp)
 804b51f:	c9                   	leave  
 804b520:	e9 af dd ff ff       	jmp    80492d4 <ntohl@plt>
 804b525:	8d 74 26 00          	lea    0x0(%esi,%eiz,1),%esi
 804b529:	8d bc 27 00 00 00 00 	lea    0x0(%edi,%eiz,1),%edi

0804b530 <getNextTocEntry>:
 804b530:	55                   	push   %ebp
 804b531:	89 e5                	mov    %esp,%ebp
 804b533:	53                   	push   %ebx
 804b534:	83 ec 14             	sub    $0x14,%esp
 804b537:	8b 5d 0c             	mov    0xc(%ebp),%ebx
 804b53a:	8b 03                	mov    (%ebx),%eax
 804b53c:	89 04 24             	mov    %eax,(%esp)
 804b53f:	e8 90 dd ff ff       	call   80492d4 <ntohl@plt>
 804b544:	8b 55 08             	mov    0x8(%ebp),%edx
 804b547:	8d 04 03             	lea    (%ebx,%eax,1),%eax
 804b54a:	3b 42 0c             	cmp    0xc(%edx),%eax
 804b54d:	19 d2                	sbb    %edx,%edx
 804b54f:	83 c4 14             	add    $0x14,%esp
 804b552:	21 d0                	and    %edx,%eax
 804b554:	5b                   	pop    %ebx
 804b555:	5d                   	pop    %ebp
 804b556:	c3                   	ret    
 804b557:	89 f6                	mov    %esi,%esi
 804b559:	8d bc 27 00 00 00 00 	lea    0x0(%edi,%eiz,1),%edi

0804b560 <pyi_arch_set_paths>:
 804b560:	55                   	push   %ebp
 804b561:	89 e5                	mov    %esp,%ebp
 804b563:	83 ec 28             	sub    $0x28,%esp
 804b566:	89 5d f4             	mov    %ebx,-0xc(%ebp)
 804b569:	8b 5d 08             	mov    0x8(%ebp),%ebx
 804b56c:	89 7d fc             	mov    %edi,-0x4(%ebp)
 804b56f:	8b 7d 0c             	mov    0xc(%ebp),%edi
 804b572:	89 75 f8             	mov    %esi,-0x8(%ebp)
 804b575:	8d 73 68             	lea    0x68(%ebx),%esi
 804b578:	89 7c 24 04          	mov    %edi,0x4(%esp)
 804b57c:	89 34 24             	mov    %esi,(%esp)
 804b57f:	e8 e0 de ff ff       	call   8049464 <strcpy@plt>
 804b584:	8b 45 10             	mov    0x10(%ebp),%eax
 804b587:	89 34 24             	mov    %esi,(%esp)
 804b58a:	8d b3 68 10 00 00    	lea    0x1068(%ebx),%esi
 804b590:	89 44 24 04          	mov    %eax,0x4(%esp)
 804b594:	e8 1b e0 ff ff       	call   80495b4 <strcat@plt>
 804b599:	89 7c 24 04          	mov    %edi,0x4(%esp)
 804b59d:	89 34 24             	mov    %esi,(%esp)
 804b5a0:	e8 bf de ff ff       	call   8049464 <strcpy@plt>
 804b5a5:	c7 83 68 40 00 00 00 	movl   $0x0,0x4068(%ebx)
 804b5ac:	00 00 00 
 804b5af:	81 c3 68 30 00 00    	add    $0x3068,%ebx
 804b5b5:	89 74 24 04          	mov    %esi,0x4(%esp)
 804b5b9:	89 1c 24             	mov    %ebx,(%esp)
 804b5bc:	e8 a3 de ff ff       	call   8049464 <strcpy@plt>
 804b5c1:	8b 5d f4             	mov    -0xc(%ebp),%ebx
 804b5c4:	31 c0                	xor    %eax,%eax
 804b5c6:	8b 75 f8             	mov    -0x8(%ebp),%esi
 804b5c9:	8b 7d fc             	mov    -0x4(%ebp),%edi
 804b5cc:	89 ec                	mov    %ebp,%esp
 804b5ce:	5d                   	pop    %ebp
 804b5cf:	c3                   	ret    

0804b5d0 <pyi_arch_increment_toc_ptr>:
 804b5d0:	55                   	push   %ebp
 804b5d1:	89 e5                	mov    %esp,%ebp
 804b5d3:	83 ec 18             	sub    $0x18,%esp
 804b5d6:	89 5d f8             	mov    %ebx,-0x8(%ebp)
 804b5d9:	8b 5d 0c             	mov    0xc(%ebp),%ebx
 804b5dc:	89 75 fc             	mov    %esi,-0x4(%ebp)
 804b5df:	8b 75 08             	mov    0x8(%ebp),%esi
 804b5e2:	8b 03                	mov    (%ebx),%eax
 804b5e4:	89 04 24             	mov    %eax,(%esp)
 804b5e7:	e8 e8 dc ff ff       	call   80492d4 <ntohl@plt>
 804b5ec:	8d 04 03             	lea    (%ebx,%eax,1),%eax
 804b5ef:	3b 46 08             	cmp    0x8(%esi),%eax
 804b5f2:	73 0f                	jae    804b603 <pyi_arch_increment_toc_ptr+0x33>
 804b5f4:	c7 04 24 d8 d1 05 08 	movl   $0x805d1d8,(%esp)
 804b5fb:	e8 40 ff 00 00       	call   805b540 <stbprint>
 804b600:	8b 46 0c             	mov    0xc(%esi),%eax
 804b603:	8b 5d f8             	mov    -0x8(%ebp),%ebx
 804b606:	8b 75 fc             	mov    -0x4(%ebp),%esi
 804b609:	89 ec                	mov    %ebp,%esp
 804b60b:	5d                   	pop    %ebp
 804b60c:	c3                   	ret    
 804b60d:	8d 76 00             	lea    0x0(%esi),%esi

0804b610 <pyi_arch_open>:
 804b610:	55                   	push   %ebp
 804b611:	89 e5                	mov    %esp,%ebp
 804b613:	83 ec 38             	sub    $0x38,%esp
 804b616:	89 5d f4             	mov    %ebx,-0xc(%ebp)
 804b619:	8b 5d 08             	mov    0x8(%ebp),%ebx
 804b61c:	89 75 f8             	mov    %esi,-0x8(%ebp)
 804b61f:	89 7d fc             	mov    %edi,-0x4(%ebp)
 804b622:	c7 44 24 04 97 c9 05 	movl   $0x805c997,0x4(%esp)
 804b629:	08 
 804b62a:	8d 43 68             	lea    0x68(%ebx),%eax
 804b62d:	89 04 24             	mov    %eax,(%esp)
 804b630:	e8 eb e3 00 00       	call   8059a20 <stb_fopen>
 804b635:	85 c0                	test   %eax,%eax
 804b637:	89 03                	mov    %eax,(%ebx)
 804b639:	75 15                	jne    804b650 <pyi_arch_open+0x40>
 804b63b:	b8 ff ff ff ff       	mov    $0xffffffff,%eax
 804b640:	8b 5d f4             	mov    -0xc(%ebp),%ebx
 804b643:	8b 75 f8             	mov    -0x8(%ebp),%esi
 804b646:	8b 7d fc             	mov    -0x4(%ebp),%edi
 804b649:	89 ec                	mov    %ebp,%esp
 804b64b:	5d                   	pop    %ebp
 804b64c:	c3                   	ret    
 804b64d:	8d 76 00             	lea    0x0(%esi),%esi
 804b650:	c7 44 24 08 02 00 00 	movl   $0x2,0x8(%esp)
 804b657:	00 
 804b658:	c7 44 24 04 00 00 00 	movl   $0x0,0x4(%esp)
 804b65f:	00 
 804b660:	89 04 24             	mov    %eax,(%esp)
 804b663:	e8 1c dd ff ff       	call   8049384 <fseek@plt>
 804b668:	8b 03                	mov    (%ebx),%eax
 804b66a:	89 04 24             	mov    %eax,(%esp)
 804b66d:	e8 12 de ff ff       	call   8049484 <ftell@plt>
 804b672:	c7 44 24 08 00 00 00 	movl   $0x0,0x8(%esp)
 804b679:	00 
 804b67a:	89 45 e4             	mov    %eax,-0x1c(%ebp)
 804b67d:	83 e8 58             	sub    $0x58,%eax
 804b680:	89 44 24 04          	mov    %eax,0x4(%esp)
 804b684:	8b 03                	mov    (%ebx),%eax
 804b686:	89 04 24             	mov    %eax,(%esp)
 804b689:	e8 f6 dc ff ff       	call   8049384 <fseek@plt>
 804b68e:	85 c0                	test   %eax,%eax
 804b690:	75 a9                	jne    804b63b <pyi_arch_open+0x2b>
 804b692:	8b 03                	mov    (%ebx),%eax
 804b694:	8d 73 10             	lea    0x10(%ebx),%esi
 804b697:	c7 44 24 08 01 00 00 	movl   $0x1,0x8(%esp)
 804b69e:	00 
 804b69f:	c7 44 24 04 58 00 00 	movl   $0x58,0x4(%esp)
 804b6a6:	00 
 804b6a7:	89 34 24             	mov    %esi,(%esp)
 804b6aa:	89 44 24 0c          	mov    %eax,0xc(%esp)
 804b6ae:	e8 31 df ff ff       	call   80495e4 <fread@plt>
 804b6b3:	85 c0                	test   %eax,%eax
 804b6b5:	74 84                	je     804b63b <pyi_arch_open+0x2b>
 804b6b7:	bf 83 d2 05 08       	mov    $0x805d283,%edi
 804b6bc:	b9 08 00 00 00       	mov    $0x8,%ecx
 804b6c1:	f3 a6                	repz cmpsb %es:(%edi),%ds:(%esi)
 804b6c3:	0f 85 72 ff ff ff    	jne    804b63b <pyi_arch_open+0x2b>
 804b6c9:	8b 43 18             	mov    0x18(%ebx),%eax
 804b6cc:	c7 83 6c 40 00 00 00 	movl   $0x0,0x406c(%ebx)
 804b6d3:	00 00 00 
 804b6d6:	89 04 24             	mov    %eax,(%esp)
 804b6d9:	e8 f6 db ff ff       	call   80492d4 <ntohl@plt>
 804b6de:	8b 75 e4             	mov    -0x1c(%ebp),%esi
 804b6e1:	29 c6                	sub    %eax,%esi
 804b6e3:	8b 43 1c             	mov    0x1c(%ebx),%eax
 804b6e6:	89 73 04             	mov    %esi,0x4(%ebx)
 804b6e9:	89 04 24             	mov    %eax,(%esp)
 804b6ec:	e8 e3 db ff ff       	call   80492d4 <ntohl@plt>
 804b6f1:	c7 44 24 08 00 00 00 	movl   $0x0,0x8(%esp)
 804b6f8:	00 
 804b6f9:	01 c6                	add    %eax,%esi
 804b6fb:	89 74 24 04          	mov    %esi,0x4(%esp)
 804b6ff:	8b 03                	mov    (%ebx),%eax
 804b701:	89 04 24             	mov    %eax,(%esp)
 804b704:	e8 7b dc ff ff       	call   8049384 <fseek@plt>
 804b709:	8b 43 20             	mov    0x20(%ebx),%eax
 804b70c:	89 04 24             	mov    %eax,(%esp)
 804b70f:	e8 c0 db ff ff       	call   80492d4 <ntohl@plt>
 804b714:	89 04 24             	mov    %eax,(%esp)
 804b717:	e8 08 de ff ff       	call   8049524 <malloc@plt>
 804b71c:	85 c0                	test   %eax,%eax
 804b71e:	89 43 08             	mov    %eax,0x8(%ebx)
 804b721:	74 7b                	je     804b79e <pyi_arch_open+0x18e>
 804b723:	8b 43 20             	mov    0x20(%ebx),%eax
 804b726:	8b 33                	mov    (%ebx),%esi
 804b728:	89 04 24             	mov    %eax,(%esp)
 804b72b:	e8 a4 db ff ff       	call   80492d4 <ntohl@plt>
 804b730:	89 74 24 0c          	mov    %esi,0xc(%esp)
 804b734:	c7 44 24 08 01 00 00 	movl   $0x1,0x8(%esp)
 804b73b:	00 
 804b73c:	89 44 24 04          	mov    %eax,0x4(%esp)
 804b740:	8b 43 08             	mov    0x8(%ebx),%eax
 804b743:	89 04 24             	mov    %eax,(%esp)
 804b746:	e8 99 de ff ff       	call   80495e4 <fread@plt>
 804b74b:	85 c0                	test   %eax,%eax
 804b74d:	74 39                	je     804b788 <pyi_arch_open+0x178>
 804b74f:	8b 43 20             	mov    0x20(%ebx),%eax
 804b752:	8b 73 08             	mov    0x8(%ebx),%esi
 804b755:	89 04 24             	mov    %eax,(%esp)
 804b758:	e8 77 db ff ff       	call   80492d4 <ntohl@plt>
 804b75d:	01 c6                	add    %eax,%esi
 804b75f:	8b 03                	mov    (%ebx),%eax
 804b761:	89 73 0c             	mov    %esi,0xc(%ebx)
 804b764:	89 04 24             	mov    %eax,(%esp)
 804b767:	e8 a8 de ff ff       	call   8049614 <ferror@plt>
 804b76c:	85 c0                	test   %eax,%eax
 804b76e:	0f 84 cc fe ff ff    	je     804b640 <pyi_arch_open+0x30>
 804b774:	c7 04 24 a6 d2 05 08 	movl   $0x805d2a6,(%esp)
 804b77b:	e8 c0 fd 00 00       	call   805b540 <stbprint>
 804b780:	83 c8 ff             	or     $0xffffffff,%eax
 804b783:	e9 b8 fe ff ff       	jmp    804b640 <pyi_arch_open+0x30>
 804b788:	c7 04 24 8c d2 05 08 	movl   $0x805d28c,(%esp)
 804b78f:	e8 ac fd 00 00       	call   805b540 <stbprint>
 804b794:	b8 ff ff ff ff       	mov    $0xffffffff,%eax
 804b799:	e9 a2 fe ff ff       	jmp    804b640 <pyi_arch_open+0x30>
 804b79e:	c7 04 24 f8 d1 05 08 	movl   $0x805d1f8,(%esp)
 804b7a5:	e8 96 fd 00 00       	call   805b540 <stbprint>
 804b7aa:	83 c8 ff             	or     $0xffffffff,%eax
 804b7ad:	e9 8e fe ff ff       	jmp    804b640 <pyi_arch_open+0x30>
 804b7b2:	8d b4 26 00 00 00 00 	lea    0x0(%esi,%eiz,1),%esi
 804b7b9:	8d bc 27 00 00 00 00 	lea    0x0(%edi,%eiz,1),%edi

0804b7c0 <pyi_arch_setup>:
 804b7c0:	55                   	push   %ebp
 804b7c1:	89 e5                	mov    %esp,%ebp
 804b7c3:	53                   	push   %ebx
 804b7c4:	83 ec 14             	sub    $0x14,%esp
 804b7c7:	8b 45 10             	mov    0x10(%ebp),%eax
 804b7ca:	8b 5d 08             	mov    0x8(%ebp),%ebx
 804b7cd:	89 44 24 08          	mov    %eax,0x8(%esp)
 804b7d1:	8b 45 0c             	mov    0xc(%ebp),%eax
 804b7d4:	89 1c 24             	mov    %ebx,(%esp)
 804b7d7:	89 44 24 04          	mov    %eax,0x4(%esp)
 804b7db:	e8 80 fd ff ff       	call   804b560 <pyi_arch_set_paths>
 804b7e0:	85 c0                	test   %eax,%eax
 804b7e2:	74 0c                	je     804b7f0 <pyi_arch_setup+0x30>
 804b7e4:	b8 ff ff ff ff       	mov    $0xffffffff,%eax
 804b7e9:	83 c4 14             	add    $0x14,%esp
 804b7ec:	5b                   	pop    %ebx
 804b7ed:	5d                   	pop    %ebp
 804b7ee:	c3                   	ret    
 804b7ef:	90                   	nop
 804b7f0:	89 1c 24             	mov    %ebx,(%esp)
 804b7f3:	e8 18 fe ff ff       	call   804b610 <pyi_arch_open>
 804b7f8:	89 c2                	mov    %eax,%edx
 804b7fa:	31 c0                	xor    %eax,%eax
 804b7fc:	85 d2                	test   %edx,%edx
 804b7fe:	74 e9                	je     804b7e9 <pyi_arch_setup+0x29>
 804b800:	eb e2                	jmp    804b7e4 <pyi_arch_setup+0x24>
 804b802:	8d b4 26 00 00 00 00 	lea    0x0(%esi,%eiz,1),%esi
 804b809:	8d bc 27 00 00 00 00 	lea    0x0(%edi,%eiz,1),%edi

0804b810 <pyi_arch_extract>:
 804b810:	55                   	push   %ebp
 804b811:	89 e5                	mov    %esp,%ebp
 804b813:	57                   	push   %edi
 804b814:	56                   	push   %esi
 804b815:	53                   	push   %ebx
 804b816:	83 ec 6c             	sub    $0x6c,%esp
 804b819:	8b 75 0c             	mov    0xc(%ebp),%esi
 804b81c:	8b 45 08             	mov    0x8(%ebp),%eax
 804b81f:	8b 58 04             	mov    0x4(%eax),%ebx
 804b822:	8b 46 04             	mov    0x4(%esi),%eax
 804b825:	89 04 24             	mov    %eax,(%esp)
 804b828:	e8 a7 da ff ff       	call   80492d4 <ntohl@plt>
 804b82d:	c7 44 24 08 00 00 00 	movl   $0x0,0x8(%esp)
 804b834:	00 
 804b835:	8d 1c 18             	lea    (%eax,%ebx,1),%ebx
 804b838:	89 5c 24 04          	mov    %ebx,0x4(%esp)
 804b83c:	8b 55 08             	mov    0x8(%ebp),%edx
 804b83f:	8b 02                	mov    (%edx),%eax
 804b841:	89 04 24             	mov    %eax,(%esp)
 804b844:	e8 3b db ff ff       	call   8049384 <fseek@plt>
 804b849:	8b 46 08             	mov    0x8(%esi),%eax
 804b84c:	89 04 24             	mov    %eax,(%esp)
 804b84f:	e8 80 da ff ff       	call   80492d4 <ntohl@plt>
 804b854:	89 04 24             	mov    %eax,(%esp)
 804b857:	e8 c8 dc ff ff       	call   8049524 <malloc@plt>
 804b85c:	85 c0                	test   %eax,%eax
 804b85e:	89 c3                	mov    %eax,%ebx
 804b860:	89 c7                	mov    %eax,%edi
 804b862:	0f 84 18 01 00 00    	je     804b980 <pyi_arch_extract+0x170>
 804b868:	8b 45 08             	mov    0x8(%ebp),%eax
 804b86b:	8b 10                	mov    (%eax),%edx
 804b86d:	8b 46 08             	mov    0x8(%esi),%eax
 804b870:	89 04 24             	mov    %eax,(%esp)
 804b873:	89 55 a0             	mov    %edx,-0x60(%ebp)
 804b876:	e8 59 da ff ff       	call   80492d4 <ntohl@plt>
 804b87b:	8b 55 a0             	mov    -0x60(%ebp),%edx
 804b87e:	c7 44 24 08 01 00 00 	movl   $0x1,0x8(%esp)
 804b885:	00 
 804b886:	89 1c 24             	mov    %ebx,(%esp)
 804b889:	89 54 24 0c          	mov    %edx,0xc(%esp)
 804b88d:	89 44 24 04          	mov    %eax,0x4(%esp)
 804b891:	e8 4e dd ff ff       	call   80495e4 <fread@plt>
 804b896:	85 c0                	test   %eax,%eax
 804b898:	0f 84 ca 00 00 00    	je     804b968 <pyi_arch_extract+0x158>
 804b89e:	80 7e 10 01          	cmpb   $0x1,0x10(%esi)
 804b8a2:	74 0c                	je     804b8b0 <pyi_arch_extract+0xa0>
 804b8a4:	83 c4 6c             	add    $0x6c,%esp
 804b8a7:	89 d8                	mov    %ebx,%eax
 804b8a9:	5b                   	pop    %ebx
 804b8aa:	5e                   	pop    %esi
 804b8ab:	5f                   	pop    %edi
 804b8ac:	5d                   	pop    %ebp
 804b8ad:	c3                   	ret    
 804b8ae:	66 90                	xchg   %ax,%ax
 804b8b0:	e8 bf da ff ff       	call   8049374 <zlibVersion@plt>
 804b8b5:	8b 46 0c             	mov    0xc(%esi),%eax
 804b8b8:	89 04 24             	mov    %eax,(%esp)
 804b8bb:	e8 14 da ff ff       	call   80492d4 <ntohl@plt>
 804b8c0:	89 04 24             	mov    %eax,(%esp)
 804b8c3:	e8 5c dc ff ff       	call   8049524 <malloc@plt>
 804b8c8:	85 c0                	test   %eax,%eax
 804b8ca:	89 45 a4             	mov    %eax,-0x5c(%ebp)
 804b8cd:	0f 84 10 01 00 00    	je     804b9e3 <pyi_arch_extract+0x1d3>
 804b8d3:	8b 46 08             	mov    0x8(%esi),%eax
 804b8d6:	c7 45 d0 00 00 00 00 	movl   $0x0,-0x30(%ebp)
 804b8dd:	c7 45 d4 00 00 00 00 	movl   $0x0,-0x2c(%ebp)
 804b8e4:	c7 45 d8 00 00 00 00 	movl   $0x0,-0x28(%ebp)
 804b8eb:	89 5d b0             	mov    %ebx,-0x50(%ebp)
 804b8ee:	89 04 24             	mov    %eax,(%esp)
 804b8f1:	e8 de d9 ff ff       	call   80492d4 <ntohl@plt>
 804b8f6:	8b 55 a4             	mov    -0x5c(%ebp),%edx
 804b8f9:	89 55 bc             	mov    %edx,-0x44(%ebp)
 804b8fc:	89 45 b4             	mov    %eax,-0x4c(%ebp)
 804b8ff:	8b 46 0c             	mov    0xc(%esi),%eax
 804b902:	89 04 24             	mov    %eax,(%esp)
 804b905:	e8 ca d9 ff ff       	call   80492d4 <ntohl@plt>
 804b90a:	89 45 c0             	mov    %eax,-0x40(%ebp)
 804b90d:	8d 45 b0             	lea    -0x50(%ebp),%eax
 804b910:	c7 44 24 08 38 00 00 	movl   $0x38,0x8(%esp)
 804b917:	00 
 804b918:	c7 44 24 04 ce d2 05 	movl   $0x805d2ce,0x4(%esp)
 804b91f:	08 
 804b920:	89 04 24             	mov    %eax,(%esp)
 804b923:	e8 5c dc ff ff       	call   8049584 <inflateInit_@plt>
 804b928:	85 c0                	test   %eax,%eax
 804b92a:	78 65                	js     804b991 <pyi_arch_extract+0x181>
 804b92c:	8d 55 b0             	lea    -0x50(%ebp),%edx
 804b92f:	c7 44 24 04 04 00 00 	movl   $0x4,0x4(%esp)
 804b936:	00 
 804b937:	89 14 24             	mov    %edx,(%esp)
 804b93a:	e8 c5 d9 ff ff       	call   8049304 <inflate@plt>
 804b93f:	85 c0                	test   %eax,%eax
 804b941:	0f 88 83 00 00 00    	js     804b9ca <pyi_arch_extract+0x1ba>
 804b947:	8d 45 b0             	lea    -0x50(%ebp),%eax
 804b94a:	89 04 24             	mov    %eax,(%esp)
 804b94d:	e8 62 d8 ff ff       	call   80491b4 <inflateEnd@plt>
 804b952:	89 1c 24             	mov    %ebx,(%esp)
 804b955:	e8 ca d9 ff ff       	call   8049324 <free@plt>
 804b95a:	8b 5d a4             	mov    -0x5c(%ebp),%ebx
 804b95d:	83 c4 6c             	add    $0x6c,%esp
 804b960:	89 d8                	mov    %ebx,%eax
 804b962:	5b                   	pop    %ebx
 804b963:	5e                   	pop    %esi
 804b964:	5f                   	pop    %edi
 804b965:	5d                   	pop    %ebp
 804b966:	c3                   	ret    
 804b967:	90                   	nop
 804b968:	c7 04 24 b4 d2 05 08 	movl   $0x805d2b4,(%esp)
 804b96f:	31 db                	xor    %ebx,%ebx
 804b971:	e8 ca fb 00 00       	call   805b540 <stbprint>
 804b976:	e9 29 ff ff ff       	jmp    804b8a4 <pyi_arch_extract+0x94>
 804b97b:	90                   	nop
 804b97c:	8d 74 26 00          	lea    0x0(%esi,%eiz,1),%esi
 804b980:	c7 04 24 1c d2 05 08 	movl   $0x805d21c,(%esp)
 804b987:	e8 b4 fb 00 00       	call   805b540 <stbprint>
 804b98c:	e9 13 ff ff ff       	jmp    804b8a4 <pyi_arch_extract+0x94>
 804b991:	8b 55 c8             	mov    -0x38(%ebp),%edx
 804b994:	89 44 24 04          	mov    %eax,0x4(%esp)
 804b998:	c7 04 24 64 d2 05 08 	movl   $0x805d264,(%esp)
 804b99f:	89 54 24 08          	mov    %edx,0x8(%esp)
 804b9a3:	e8 98 fb 00 00       	call   805b540 <stbprint>
 804b9a8:	83 c6 12             	add    $0x12,%esi
 804b9ab:	31 db                	xor    %ebx,%ebx
 804b9ad:	89 3c 24             	mov    %edi,(%esp)
 804b9b0:	e8 6f d9 ff ff       	call   8049324 <free@plt>
 804b9b5:	89 74 24 04          	mov    %esi,0x4(%esp)
 804b9b9:	c7 04 24 ef d2 05 08 	movl   $0x805d2ef,(%esp)
 804b9c0:	e8 7b fb 00 00       	call   805b540 <stbprint>
 804b9c5:	e9 da fe ff ff       	jmp    804b8a4 <pyi_arch_extract+0x94>
 804b9ca:	8b 55 c8             	mov    -0x38(%ebp),%edx
 804b9cd:	89 44 24 04          	mov    %eax,0x4(%esp)
 804b9d1:	c7 04 24 d4 d2 05 08 	movl   $0x805d2d4,(%esp)
 804b9d8:	89 54 24 08          	mov    %edx,0x8(%esp)
 804b9dc:	e8 5f fb 00 00       	call   805b540 <stbprint>
 804b9e1:	eb c5                	jmp    804b9a8 <pyi_arch_extract+0x198>
 804b9e3:	c7 04 24 3c d2 05 08 	movl   $0x805d23c,(%esp)
 804b9ea:	e8 51 fb 00 00       	call   805b540 <stbprint>
 804b9ef:	90                   	nop
 804b9f0:	eb b6                	jmp    804b9a8 <pyi_arch_extract+0x198>
 804b9f2:	8d b4 26 00 00 00 00 	lea    0x0(%esi,%eiz,1),%esi
 804b9f9:	8d bc 27 00 00 00 00 	lea    0x0(%edi,%eiz,1),%edi

0804ba00 <pyi_arch_extract2fs>:
 804ba00:	55                   	push   %ebp
 804ba01:	89 e5                	mov    %esp,%ebp
 804ba03:	83 ec 38             	sub    $0x38,%esp
 804ba06:	89 5d f4             	mov    %ebx,-0xc(%ebp)
 804ba09:	8b 5d 08             	mov    0x8(%ebp),%ebx
 804ba0c:	89 75 f8             	mov    %esi,-0x8(%ebp)
 804ba0f:	8b 75 0c             	mov    0xc(%ebp),%esi
 804ba12:	89 7d fc             	mov    %edi,-0x4(%ebp)
 804ba15:	89 1c 24             	mov    %ebx,(%esp)
 804ba18:	89 74 24 04          	mov    %esi,0x4(%esp)
 804ba1c:	e8 ef fd ff ff       	call   804b810 <pyi_arch_extract>
 804ba21:	89 1c 24             	mov    %ebx,(%esp)
 804ba24:	89 c7                	mov    %eax,%edi
 804ba26:	e8 35 f2 ff ff       	call   804ac60 <pyi_create_temp_path>
 804ba2b:	89 c2                	mov    %eax,%edx
 804ba2d:	b8 ff ff ff ff       	mov    $0xffffffff,%eax
 804ba32:	83 fa ff             	cmp    $0xffffffff,%edx
 804ba35:	74 6e                	je     804baa5 <pyi_arch_extract2fs+0xa5>
 804ba37:	8d 56 12             	lea    0x12(%esi),%edx
 804ba3a:	81 c3 68 20 00 00    	add    $0x2068,%ebx
 804ba40:	89 54 24 04          	mov    %edx,0x4(%esp)
 804ba44:	89 1c 24             	mov    %ebx,(%esp)
 804ba47:	89 55 e4             	mov    %edx,-0x1c(%ebp)
 804ba4a:	e8 31 ed ff ff       	call   804a780 <pyi_open_target>
 804ba4f:	8b 55 e4             	mov    -0x1c(%ebp),%edx
 804ba52:	85 c0                	test   %eax,%eax
 804ba54:	89 c3                	mov    %eax,%ebx
 804ba56:	74 5a                	je     804bab2 <pyi_arch_extract2fs+0xb2>
 804ba58:	8b 46 0c             	mov    0xc(%esi),%eax
 804ba5b:	89 04 24             	mov    %eax,(%esp)
 804ba5e:	e8 71 d8 ff ff       	call   80492d4 <ntohl@plt>
 804ba63:	89 5c 24 0c          	mov    %ebx,0xc(%esp)
 804ba67:	c7 44 24 08 01 00 00 	movl   $0x1,0x8(%esp)
 804ba6e:	00 
 804ba6f:	89 3c 24             	mov    %edi,(%esp)
 804ba72:	89 44 24 04          	mov    %eax,0x4(%esp)
 804ba76:	e8 59 da ff ff       	call   80494d4 <fwrite@plt>
 804ba7b:	89 1c 24             	mov    %ebx,(%esp)
 804ba7e:	e8 b1 d6 ff ff       	call   8049134 <fileno@plt>
 804ba83:	c7 44 24 04 c0 01 00 	movl   $0x1c0,0x4(%esp)
 804ba8a:	00 
 804ba8b:	89 04 24             	mov    %eax,(%esp)
 804ba8e:	e8 d1 db ff ff       	call   8049664 <fchmod@plt>
 804ba93:	89 1c 24             	mov    %ebx,(%esp)
 804ba96:	e8 09 d9 ff ff       	call   80493a4 <fclose@plt>
 804ba9b:	89 3c 24             	mov    %edi,(%esp)
 804ba9e:	e8 81 d8 ff ff       	call   8049324 <free@plt>
 804baa3:	31 c0                	xor    %eax,%eax
 804baa5:	8b 5d f4             	mov    -0xc(%ebp),%ebx
 804baa8:	8b 75 f8             	mov    -0x8(%ebp),%esi
 804baab:	8b 7d fc             	mov    -0x4(%ebp),%edi
 804baae:	89 ec                	mov    %ebp,%esp
 804bab0:	5d                   	pop    %ebp
 804bab1:	c3                   	ret    
 804bab2:	89 54 24 04          	mov    %edx,0x4(%esp)
 804bab6:	c7 04 24 07 d3 05 08 	movl   $0x805d307,(%esp)
 804babd:	e8 7e fa 00 00       	call   805b540 <stbprint>
 804bac2:	b8 ff ff ff ff       	mov    $0xffffffff,%eax
 804bac7:	eb dc                	jmp    804baa5 <pyi_arch_extract2fs+0xa5>
 804bac9:	90                   	nop
 804baca:	90                   	nop
 804bacb:	90                   	nop
 804bacc:	90                   	nop
 804bacd:	90                   	nop
 804bace:	90                   	nop
 804bacf:	90                   	nop

0804bad0 <stb_from_utf8>:
 804bad0:	55                   	push   %ebp
 804bad1:	31 d2                	xor    %edx,%edx
 804bad3:	89 e5                	mov    %esp,%ebp
 804bad5:	57                   	push   %edi
 804bad6:	56                   	push   %esi
 804bad7:	53                   	push   %ebx
 804bad8:	83 ec 10             	sub    $0x10,%esp
 804badb:	8b 5d 10             	mov    0x10(%ebp),%ebx
 804bade:	8b 45 08             	mov    0x8(%ebp),%eax
 804bae1:	8b 75 0c             	mov    0xc(%ebp),%esi
 804bae4:	83 eb 01             	sub    $0x1,%ebx
 804bae7:	89 5d e4             	mov    %ebx,-0x1c(%ebp)
 804baea:	8d b6 00 00 00 00    	lea    0x0(%esi),%esi
 804baf0:	0f b6 3e             	movzbl (%esi),%edi
 804baf3:	89 f9                	mov    %edi,%ecx
 804baf5:	84 c9                	test   %cl,%cl
 804baf7:	74 27                	je     804bb20 <stb_from_utf8+0x50>
 804baf9:	3b 55 e4             	cmp    -0x1c(%ebp),%edx
 804bafc:	0f 8d de 01 00 00    	jge    804bce0 <stb_from_utf8+0x210>
 804bb02:	89 f9                	mov    %edi,%ecx
 804bb04:	84 c9                	test   %cl,%cl
 804bb06:	78 28                	js     804bb30 <stb_from_utf8+0x60>
 804bb08:	66 81 e7 ff 00       	and    $0xff,%di
 804bb0d:	83 c6 01             	add    $0x1,%esi
 804bb10:	66 89 3c 50          	mov    %di,(%eax,%edx,2)
 804bb14:	0f b6 3e             	movzbl (%esi),%edi
 804bb17:	83 c2 01             	add    $0x1,%edx
 804bb1a:	89 f9                	mov    %edi,%ecx
 804bb1c:	84 c9                	test   %cl,%cl
 804bb1e:	75 d9                	jne    804baf9 <stb_from_utf8+0x29>
 804bb20:	66 c7 04 50 00 00    	movw   $0x0,(%eax,%edx,2)
 804bb26:	83 c4 10             	add    $0x10,%esp
 804bb29:	5b                   	pop    %ebx
 804bb2a:	5e                   	pop    %esi
 804bb2b:	5f                   	pop    %edi
 804bb2c:	5d                   	pop    %ebp
 804bb2d:	c3                   	ret    
 804bb2e:	66 90                	xchg   %ax,%ax
 804bb30:	89 fb                	mov    %edi,%ebx
 804bb32:	0f b6 cb             	movzbl %bl,%ecx
 804bb35:	89 cb                	mov    %ecx,%ebx
 804bb37:	81 e3 e0 00 00 00    	and    $0xe0,%ebx
 804bb3d:	81 fb c0 00 00 00    	cmp    $0xc0,%ebx
 804bb43:	0f 84 bf 01 00 00    	je     804bd08 <stb_from_utf8+0x238>
 804bb49:	89 cb                	mov    %ecx,%ebx
 804bb4b:	81 e3 f0 00 00 00    	and    $0xf0,%ebx
 804bb51:	81 fb e0 00 00 00    	cmp    $0xe0,%ebx
 804bb57:	75 77                	jne    804bbd0 <stb_from_utf8+0x100>
 804bb59:	89 fb                	mov    %edi,%ebx
 804bb5b:	80 fb e0             	cmp    $0xe0,%bl
 804bb5e:	0f 84 d7 01 00 00    	je     804bd3b <stb_from_utf8+0x26b>
 804bb64:	89 fb                	mov    %edi,%ebx
 804bb66:	80 fb ed             	cmp    $0xed,%bl
 804bb69:	0f 84 59 01 00 00    	je     804bcc8 <stb_from_utf8+0x1f8>
 804bb6f:	8d 7e 01             	lea    0x1(%esi),%edi
 804bb72:	0f b6 76 01          	movzbl 0x1(%esi),%esi
 804bb76:	81 e6 ff 00 00 00    	and    $0xff,%esi
 804bb7c:	89 f3                	mov    %esi,%ebx
 804bb7e:	81 e3 c0 00 00 00    	and    $0xc0,%ebx
 804bb84:	83 c3 80             	add    $0xffffff80,%ebx
 804bb87:	0f 85 53 01 00 00    	jne    804bce0 <stb_from_utf8+0x210>
 804bb8d:	0f b6 5f 01          	movzbl 0x1(%edi),%ebx
 804bb91:	88 5d f0             	mov    %bl,-0x10(%ebp)
 804bb94:	81 e3 c0 00 00 00    	and    $0xc0,%ebx
 804bb9a:	83 c3 80             	add    $0xffffff80,%ebx
 804bb9d:	0f 85 3d 01 00 00    	jne    804bce0 <stb_from_utf8+0x210>
 804bba3:	0f b6 5d f0          	movzbl -0x10(%ebp),%ebx
 804bba7:	c1 e1 0c             	shl    $0xc,%ecx
 804bbaa:	83 e6 3f             	and    $0x3f,%esi
 804bbad:	c1 e6 06             	shl    $0x6,%esi
 804bbb0:	81 e1 ff ff 00 00    	and    $0xffff,%ecx
 804bbb6:	8d 0c 0e             	lea    (%esi,%ecx,1),%ecx
 804bbb9:	83 e3 3f             	and    $0x3f,%ebx
 804bbbc:	89 de                	mov    %ebx,%esi
 804bbbe:	8d 0c 0e             	lea    (%esi,%ecx,1),%ecx
 804bbc1:	66 89 0c 50          	mov    %cx,(%eax,%edx,2)
 804bbc5:	8d 77 02             	lea    0x2(%edi),%esi
 804bbc8:	83 c2 01             	add    $0x1,%edx
 804bbcb:	e9 20 ff ff ff       	jmp    804baf0 <stb_from_utf8+0x20>
 804bbd0:	89 cb                	mov    %ecx,%ebx
 804bbd2:	81 e3 f8 00 00 00    	and    $0xf8,%ebx
 804bbd8:	81 fb f0 00 00 00    	cmp    $0xf0,%ebx
 804bbde:	0f 85 fc 00 00 00    	jne    804bce0 <stb_from_utf8+0x210>
 804bbe4:	89 fb                	mov    %edi,%ebx
 804bbe6:	80 fb f4             	cmp    $0xf4,%bl
 804bbe9:	0f 87 f1 00 00 00    	ja     804bce0 <stb_from_utf8+0x210>
 804bbef:	80 fb f0             	cmp    $0xf0,%bl
 804bbf2:	0f 84 58 01 00 00    	je     804bd50 <stb_from_utf8+0x280>
 804bbf8:	89 fb                	mov    %edi,%ebx
 804bbfa:	80 fb f4             	cmp    $0xf4,%bl
 804bbfd:	0f 84 ed 00 00 00    	je     804bcf0 <stb_from_utf8+0x220>
 804bc03:	8d 7e 01             	lea    0x1(%esi),%edi
 804bc06:	0f b6 76 01          	movzbl 0x1(%esi),%esi
 804bc0a:	81 e6 ff 00 00 00    	and    $0xff,%esi
 804bc10:	89 f3                	mov    %esi,%ebx
 804bc12:	81 e3 c0 00 00 00    	and    $0xc0,%ebx
 804bc18:	83 c3 80             	add    $0xffffff80,%ebx
 804bc1b:	0f 85 bf 00 00 00    	jne    804bce0 <stb_from_utf8+0x210>
 804bc21:	0f b6 5f 01          	movzbl 0x1(%edi),%ebx
 804bc25:	89 5d f0             	mov    %ebx,-0x10(%ebp)
 804bc28:	81 e3 c0 00 00 00    	and    $0xc0,%ebx
 804bc2e:	83 c3 80             	add    $0xffffff80,%ebx
 804bc31:	0f 85 a9 00 00 00    	jne    804bce0 <stb_from_utf8+0x210>
 804bc37:	0f b6 5f 02          	movzbl 0x2(%edi),%ebx
 804bc3b:	89 5d ec             	mov    %ebx,-0x14(%ebp)
 804bc3e:	81 e3 c0 00 00 00    	and    $0xc0,%ebx
 804bc44:	83 c3 80             	add    $0xffffff80,%ebx
 804bc47:	0f 85 93 00 00 00    	jne    804bce0 <stb_from_utf8+0x210>
 804bc4d:	83 e1 07             	and    $0x7,%ecx
 804bc50:	83 e6 3f             	and    $0x3f,%esi
 804bc53:	c1 e1 12             	shl    $0x12,%ecx
 804bc56:	c1 e6 0c             	shl    $0xc,%esi
 804bc59:	01 ce                	add    %ecx,%esi
 804bc5b:	8b 4d ec             	mov    -0x14(%ebp),%ecx
 804bc5e:	83 e1 3f             	and    $0x3f,%ecx
 804bc61:	8d 0c 0e             	lea    (%esi,%ecx,1),%ecx
 804bc64:	8b 75 f0             	mov    -0x10(%ebp),%esi
 804bc67:	83 e6 3f             	and    $0x3f,%esi
 804bc6a:	c1 e6 06             	shl    $0x6,%esi
 804bc6d:	01 f1                	add    %esi,%ecx
 804bc6f:	8d 77 03             	lea    0x3(%edi),%esi
 804bc72:	89 cf                	mov    %ecx,%edi
 804bc74:	81 e7 00 f8 ff ff    	and    $0xfffff800,%edi
 804bc7a:	81 ff 00 d8 00 00    	cmp    $0xd800,%edi
 804bc80:	74 5e                	je     804bce0 <stb_from_utf8+0x210>
 804bc82:	81 f9 ff ff 00 00    	cmp    $0xffff,%ecx
 804bc88:	0f 86 62 fe ff ff    	jbe    804baf0 <stb_from_utf8+0x20>
 804bc8e:	8d 7a 01             	lea    0x1(%edx),%edi
 804bc91:	39 7d e4             	cmp    %edi,-0x1c(%ebp)
 804bc94:	7e 4a                	jle    804bce0 <stb_from_utf8+0x210>
 804bc96:	8d 99 00 00 ff ff    	lea    -0x10000(%ecx),%ebx
 804bc9c:	89 d9                	mov    %ebx,%ecx
 804bc9e:	c1 e9 0a             	shr    $0xa,%ecx
 804bca1:	66 81 e1 ff 03       	and    $0x3ff,%cx
 804bca6:	66 81 c9 00 d8       	or     $0xd800,%cx
 804bcab:	66 89 0c 50          	mov    %cx,(%eax,%edx,2)
 804bcaf:	89 d9                	mov    %ebx,%ecx
 804bcb1:	83 c2 02             	add    $0x2,%edx
 804bcb4:	66 81 e1 ff 03       	and    $0x3ff,%cx
 804bcb9:	66 81 c9 00 dc       	or     $0xdc00,%cx
 804bcbe:	66 89 0c 78          	mov    %cx,(%eax,%edi,2)
 804bcc2:	e9 29 fe ff ff       	jmp    804baf0 <stb_from_utf8+0x20>
 804bcc7:	90                   	nop
 804bcc8:	8d 7e 01             	lea    0x1(%esi),%edi
 804bccb:	0f b6 76 01          	movzbl 0x1(%esi),%esi
 804bccf:	89 f3                	mov    %esi,%ebx
 804bcd1:	80 fb 9f             	cmp    $0x9f,%bl
 804bcd4:	0f 86 9c fe ff ff    	jbe    804bb76 <stb_from_utf8+0xa6>
 804bcda:	8d b6 00 00 00 00    	lea    0x0(%esi),%esi
 804bce0:	83 c4 10             	add    $0x10,%esp
 804bce3:	31 c0                	xor    %eax,%eax
 804bce5:	5b                   	pop    %ebx
 804bce6:	5e                   	pop    %esi
 804bce7:	5f                   	pop    %edi
 804bce8:	5d                   	pop    %ebp
 804bce9:	c3                   	ret    
 804bcea:	8d b6 00 00 00 00    	lea    0x0(%esi),%esi
 804bcf0:	8d 7e 01             	lea    0x1(%esi),%edi
 804bcf3:	0f b6 76 01          	movzbl 0x1(%esi),%esi
 804bcf7:	89 f3                	mov    %esi,%ebx
 804bcf9:	80 fb 8f             	cmp    $0x8f,%bl
 804bcfc:	0f 86 08 ff ff ff    	jbe    804bc0a <stb_from_utf8+0x13a>
 804bd02:	eb dc                	jmp    804bce0 <stb_from_utf8+0x210>
 804bd04:	8d 74 26 00          	lea    0x0(%esi,%eiz,1),%esi
 804bd08:	89 fb                	mov    %edi,%ebx
 804bd0a:	80 fb c1             	cmp    $0xc1,%bl
 804bd0d:	76 d1                	jbe    804bce0 <stb_from_utf8+0x210>
 804bd0f:	0f b6 7e 01          	movzbl 0x1(%esi),%edi
 804bd13:	89 fb                	mov    %edi,%ebx
 804bd15:	81 e3 c0 00 00 00    	and    $0xc0,%ebx
 804bd1b:	83 c3 80             	add    $0xffffff80,%ebx
 804bd1e:	75 c0                	jne    804bce0 <stb_from_utf8+0x210>
 804bd20:	83 e1 1f             	and    $0x1f,%ecx
 804bd23:	83 e7 3f             	and    $0x3f,%edi
 804bd26:	c1 e1 06             	shl    $0x6,%ecx
 804bd29:	83 c6 02             	add    $0x2,%esi
 804bd2c:	8d 0c 0f             	lea    (%edi,%ecx,1),%ecx
 804bd2f:	66 89 0c 50          	mov    %cx,(%eax,%edx,2)
 804bd33:	83 c2 01             	add    $0x1,%edx
 804bd36:	e9 b5 fd ff ff       	jmp    804baf0 <stb_from_utf8+0x20>
 804bd3b:	8d 7e 01             	lea    0x1(%esi),%edi
 804bd3e:	0f b6 76 01          	movzbl 0x1(%esi),%esi
 804bd42:	8d 5e 60             	lea    0x60(%esi),%ebx
 804bd45:	80 fb 1f             	cmp    $0x1f,%bl
 804bd48:	0f 86 28 fe ff ff    	jbe    804bb76 <stb_from_utf8+0xa6>
 804bd4e:	eb 90                	jmp    804bce0 <stb_from_utf8+0x210>
 804bd50:	8d 7e 01             	lea    0x1(%esi),%edi
 804bd53:	0f b6 76 01          	movzbl 0x1(%esi),%esi
 804bd57:	8d 5e 70             	lea    0x70(%esi),%ebx
 804bd5a:	80 fb 2f             	cmp    $0x2f,%bl
 804bd5d:	0f 86 a7 fe ff ff    	jbe    804bc0a <stb_from_utf8+0x13a>
 804bd63:	e9 78 ff ff ff       	jmp    804bce0 <stb_from_utf8+0x210>
 804bd68:	90                   	nop
 804bd69:	8d b4 26 00 00 00 00 	lea    0x0(%esi,%eiz,1),%esi

0804bd70 <stb_to_utf8>:
 804bd70:	55                   	push   %ebp
 804bd71:	31 c9                	xor    %ecx,%ecx
 804bd73:	89 e5                	mov    %esp,%ebp
 804bd75:	57                   	push   %edi
 804bd76:	56                   	push   %esi
 804bd77:	53                   	push   %ebx
 804bd78:	83 ec 04             	sub    $0x4,%esp
 804bd7b:	8b 75 10             	mov    0x10(%ebp),%esi
 804bd7e:	8b 45 08             	mov    0x8(%ebp),%eax
 804bd81:	8b 5d 0c             	mov    0xc(%ebp),%ebx
 804bd84:	83 ee 01             	sub    $0x1,%esi
 804bd87:	90                   	nop
 804bd88:	0f b7 13             	movzwl (%ebx),%edx
 804bd8b:	66 85 d2             	test   %dx,%dx
 804bd8e:	0f 84 96 00 00 00    	je     804be2a <stb_to_utf8+0xba>
 804bd94:	66 83 fa 7f          	cmp    $0x7f,%dx
 804bd98:	0f 86 ea 00 00 00    	jbe    804be88 <stb_to_utf8+0x118>
 804bd9e:	66 81 fa ff 07       	cmp    $0x7ff,%dx
 804bda3:	0f 86 f7 00 00 00    	jbe    804bea0 <stb_to_utf8+0x130>
 804bda9:	8d ba 00 28 00 00    	lea    0x2800(%edx),%edi
 804bdaf:	66 81 ff ff 03       	cmp    $0x3ff,%di
 804bdb4:	0f 87 7e 00 00 00    	ja     804be38 <stb_to_utf8+0xc8>
 804bdba:	8d 79 03             	lea    0x3(%ecx),%edi
 804bdbd:	39 fe                	cmp    %edi,%esi
 804bdbf:	0f 8e 0b 01 00 00    	jle    804bed0 <stb_to_utf8+0x160>
 804bdc5:	0f b7 7b 02          	movzwl 0x2(%ebx),%edi
 804bdc9:	0f b7 d2             	movzwl %dx,%edx
 804bdcc:	83 c3 04             	add    $0x4,%ebx
 804bdcf:	c1 e2 0a             	shl    $0xa,%edx
 804bdd2:	8d 94 3a 00 24 a0 fc 	lea    -0x35fdc00(%edx,%edi,1),%edx
 804bdd9:	89 d7                	mov    %edx,%edi
 804bddb:	c1 ef 12             	shr    $0x12,%edi
 804bdde:	83 ef 10             	sub    $0x10,%edi
 804bde1:	89 55 f0             	mov    %edx,-0x10(%ebp)
 804bde4:	89 fa                	mov    %edi,%edx
 804bde6:	88 14 08             	mov    %dl,(%eax,%ecx,1)
 804bde9:	8b 7d f0             	mov    -0x10(%ebp),%edi
 804bdec:	c1 ef 0c             	shr    $0xc,%edi
 804bdef:	83 e7 3f             	and    $0x3f,%edi
 804bdf2:	83 c7 80             	add    $0xffffff80,%edi
 804bdf5:	89 fa                	mov    %edi,%edx
 804bdf7:	88 54 08 01          	mov    %dl,0x1(%eax,%ecx,1)
 804bdfb:	8b 7d f0             	mov    -0x10(%ebp),%edi
 804bdfe:	c1 ef 06             	shr    $0x6,%edi
 804be01:	83 e7 3f             	and    $0x3f,%edi
 804be04:	83 c7 80             	add    $0xffffff80,%edi
 804be07:	89 fa                	mov    %edi,%edx
 804be09:	88 54 08 02          	mov    %dl,0x2(%eax,%ecx,1)
 804be0d:	0f b6 55 f0          	movzbl -0x10(%ebp),%edx
 804be11:	83 e2 3f             	and    $0x3f,%edx
 804be14:	83 c2 80             	add    $0xffffff80,%edx
 804be17:	88 54 08 03          	mov    %dl,0x3(%eax,%ecx,1)
 804be1b:	0f b7 13             	movzwl (%ebx),%edx
 804be1e:	83 c1 04             	add    $0x4,%ecx
 804be21:	66 85 d2             	test   %dx,%dx
 804be24:	0f 85 6a ff ff ff    	jne    804bd94 <stb_to_utf8+0x24>
 804be2a:	c6 04 08 00          	movb   $0x0,(%eax,%ecx,1)
 804be2e:	83 c4 04             	add    $0x4,%esp
 804be31:	5b                   	pop    %ebx
 804be32:	5e                   	pop    %esi
 804be33:	5f                   	pop    %edi
 804be34:	5d                   	pop    %ebp
 804be35:	c3                   	ret    
 804be36:	66 90                	xchg   %ax,%ax
 804be38:	8d ba 00 24 00 00    	lea    0x2400(%edx),%edi
 804be3e:	66 81 ff ff 03       	cmp    $0x3ff,%di
 804be43:	0f 86 87 00 00 00    	jbe    804bed0 <stb_to_utf8+0x160>
 804be49:	8d 79 02             	lea    0x2(%ecx),%edi
 804be4c:	39 fe                	cmp    %edi,%esi
 804be4e:	0f 8e 7c 00 00 00    	jle    804bed0 <stb_to_utf8+0x160>
 804be54:	66 c1 ea 0c          	shr    $0xc,%dx
 804be58:	83 ea 20             	sub    $0x20,%edx
 804be5b:	88 14 08             	mov    %dl,(%eax,%ecx,1)
 804be5e:	0f b7 13             	movzwl (%ebx),%edx
 804be61:	66 c1 ea 06          	shr    $0x6,%dx
 804be65:	83 e2 3f             	and    $0x3f,%edx
 804be68:	83 c2 80             	add    $0xffffff80,%edx
 804be6b:	88 54 08 01          	mov    %dl,0x1(%eax,%ecx,1)
 804be6f:	0f b7 13             	movzwl (%ebx),%edx
 804be72:	83 c3 02             	add    $0x2,%ebx
 804be75:	83 e2 3f             	and    $0x3f,%edx
 804be78:	83 c2 80             	add    $0xffffff80,%edx
 804be7b:	88 54 08 02          	mov    %dl,0x2(%eax,%ecx,1)
 804be7f:	83 c1 03             	add    $0x3,%ecx
 804be82:	e9 01 ff ff ff       	jmp    804bd88 <stb_to_utf8+0x18>
 804be87:	90                   	nop
 804be88:	39 f1                	cmp    %esi,%ecx
 804be8a:	7d 44                	jge    804bed0 <stb_to_utf8+0x160>
 804be8c:	88 14 08             	mov    %dl,(%eax,%ecx,1)
 804be8f:	83 c3 02             	add    $0x2,%ebx
 804be92:	83 c1 01             	add    $0x1,%ecx
 804be95:	e9 ee fe ff ff       	jmp    804bd88 <stb_to_utf8+0x18>
 804be9a:	8d b6 00 00 00 00    	lea    0x0(%esi),%esi
 804bea0:	8d 79 01             	lea    0x1(%ecx),%edi
 804bea3:	39 fe                	cmp    %edi,%esi
 804bea5:	7e 29                	jle    804bed0 <stb_to_utf8+0x160>
 804bea7:	66 c1 ea 06          	shr    $0x6,%dx
 804beab:	83 ea 40             	sub    $0x40,%edx
 804beae:	88 14 08             	mov    %dl,(%eax,%ecx,1)
 804beb1:	0f b7 13             	movzwl (%ebx),%edx
 804beb4:	83 c3 02             	add    $0x2,%ebx
 804beb7:	83 e2 3f             	and    $0x3f,%edx
 804beba:	83 c2 80             	add    $0xffffff80,%edx
 804bebd:	88 54 08 01          	mov    %dl,0x1(%eax,%ecx,1)
 804bec1:	83 c1 02             	add    $0x2,%ecx
 804bec4:	e9 bf fe ff ff       	jmp    804bd88 <stb_to_utf8+0x18>
 804bec9:	8d b4 26 00 00 00 00 	lea    0x0(%esi,%eiz,1),%esi
 804bed0:	83 c4 04             	add    $0x4,%esp
 804bed3:	31 c0                	xor    %eax,%eax
 804bed5:	5b                   	pop    %ebx
 804bed6:	5e                   	pop    %esi
 804bed7:	5f                   	pop    %edi
 804bed8:	5d                   	pop    %ebp
 804bed9:	c3                   	ret    
 804beda:	8d b6 00 00 00 00    	lea    0x0(%esi),%esi

0804bee0 <stb__from_utf8>:
 804bee0:	55                   	push   %ebp
 804bee1:	89 e5                	mov    %esp,%ebp
 804bee3:	83 ec 0c             	sub    $0xc,%esp
 804bee6:	8b 45 08             	mov    0x8(%ebp),%eax
 804bee9:	c7 44 24 08 00 10 00 	movl   $0x1000,0x8(%esp)
 804bef0:	00 
 804bef1:	c7 04 24 40 22 06 08 	movl   $0x8062240,(%esp)
 804bef8:	89 44 24 04          	mov    %eax,0x4(%esp)
 804befc:	e8 cf fb ff ff       	call   804bad0 <stb_from_utf8>
 804bf01:	c9                   	leave  
 804bf02:	c3                   	ret    
 804bf03:	8d b6 00 00 00 00    	lea    0x0(%esi),%esi
 804bf09:	8d bc 27 00 00 00 00 	lea    0x0(%edi,%eiz,1),%edi

0804bf10 <stb__from_utf8_alt>:
 804bf10:	55                   	push   %ebp
 804bf11:	89 e5                	mov    %esp,%ebp
 804bf13:	83 ec 0c             	sub    $0xc,%esp
 804bf16:	8b 45 08             	mov    0x8(%ebp),%eax
 804bf19:	c7 44 24 08 40 00 00 	movl   $0x40,0x8(%esp)
 804bf20:	00 
 804bf21:	c7 04 24 c0 21 06 08 	movl   $0x80621c0,(%esp)
 804bf28:	89 44 24 04          	mov    %eax,0x4(%esp)
 804bf2c:	e8 9f fb ff ff       	call   804bad0 <stb_from_utf8>
 804bf31:	c9                   	leave  
 804bf32:	c3                   	ret    
 804bf33:	8d b6 00 00 00 00    	lea    0x0(%esi),%esi
 804bf39:	8d bc 27 00 00 00 00 	lea    0x0(%edi,%eiz,1),%edi

0804bf40 <stb__to_utf8>:
 804bf40:	55                   	push   %ebp
 804bf41:	89 e5                	mov    %esp,%ebp
 804bf43:	83 ec 0c             	sub    $0xc,%esp
 804bf46:	8b 45 08             	mov    0x8(%ebp),%eax
 804bf49:	c7 44 24 08 00 10 00 	movl   $0x1000,0x8(%esp)
 804bf50:	00 
 804bf51:	c7 04 24 c0 11 06 08 	movl   $0x80611c0,(%esp)
 804bf58:	89 44 24 04          	mov    %eax,0x4(%esp)
 804bf5c:	e8 0f fe ff ff       	call   804bd70 <stb_to_utf8>
 804bf61:	c9                   	leave  
 804bf62:	c3                   	ret    
 804bf63:	8d b6 00 00 00 00    	lea    0x0(%esi),%esi
 804bf69:	8d bc 27 00 00 00 00 	lea    0x0(%edi,%eiz,1),%edi

0804bf70 <stb__record_fileline>:
 804bf70:	55                   	push   %ebp
 804bf71:	89 e5                	mov    %esp,%ebp
 804bf73:	8b 45 08             	mov    0x8(%ebp),%eax
 804bf76:	a3 40 4a 06 08       	mov    %eax,0x8064a40
 804bf7b:	8b 45 0c             	mov    0xc(%ebp),%eax
 804bf7e:	5d                   	pop    %ebp
 804bf7f:	a3 44 4a 06 08       	mov    %eax,0x8064a44
 804bf84:	31 c0                	xor    %eax,%eax
 804bf86:	c3                   	ret    
 804bf87:	89 f6                	mov    %esi,%esi
 804bf89:	8d bc 27 00 00 00 00 	lea    0x0(%edi,%eiz,1),%edi

0804bf90 <stb_log>:
 804bf90:	55                   	push   %ebp
 804bf91:	89 e5                	mov    %esp,%ebp
 804bf93:	8b 45 08             	mov    0x8(%ebp),%eax
 804bf96:	5d                   	pop    %ebp
 804bf97:	a3 e0 e2 05 08       	mov    %eax,0x805e2e0
 804bf9c:	c3                   	ret    
 804bf9d:	8d 76 00             	lea    0x0(%esi),%esi

0804bfa0 <stb_log_fileline>:
 804bfa0:	55                   	push   %ebp
 804bfa1:	89 e5                	mov    %esp,%ebp
 804bfa3:	8b 45 08             	mov    0x8(%ebp),%eax
 804bfa6:	5d                   	pop    %ebp
 804bfa7:	a3 e4 e2 05 08       	mov    %eax,0x805e2e4
 804bfac:	c3                   	ret    
 804bfad:	8d 76 00             	lea    0x0(%esi),%esi

0804bfb0 <stb_log_name>:
 804bfb0:	55                   	push   %ebp
 804bfb1:	89 e5                	mov    %esp,%ebp
 804bfb3:	8b 45 08             	mov    0x8(%ebp),%eax
 804bfb6:	5d                   	pop    %ebp
 804bfb7:	a3 80 e2 05 08       	mov    %eax,0x805e280
 804bfbc:	c3                   	ret    
 804bfbd:	8d 76 00             	lea    0x0(%esi),%esi

0804bfc0 <stb_smoothstep>:
 804bfc0:	55                   	push   %ebp
 804bfc1:	89 e5                	mov    %esp,%ebp
 804bfc3:	d9 45 08             	flds   0x8(%ebp)
 804bfc6:	d9 05 c0 d6 05 08    	flds   0x805d6c0
 804bfcc:	d8 c9                	fmul   %st(1),%st
 804bfce:	5d                   	pop    %ebp
 804bfcf:	d8 05 c4 d6 05 08    	fadds  0x805d6c4
 804bfd5:	d9 c9                	fxch   %st(1)
 804bfd7:	d8 c8                	fmul   %st(0),%st
 804bfd9:	de c9                	fmulp  %st,%st(1)
 804bfdb:	c3                   	ret    
 804bfdc:	8d 74 26 00          	lea    0x0(%esi,%eiz,1),%esi

0804bfe0 <stb_cubic_bezier_1d>:
 804bfe0:	55                   	push   %ebp
 804bfe1:	89 e5                	mov    %esp,%ebp
 804bfe3:	d9 45 08             	flds   0x8(%ebp)
 804bfe6:	d9 e8                	fld1   
 804bfe8:	d8 e1                	fsub   %st(1),%st
 804bfea:	d9 05 c4 d6 05 08    	flds   0x805d6c4
 804bff0:	d8 c9                	fmul   %st(1),%st
 804bff2:	d9 c1                	fld    %st(1)
 804bff4:	d8 ca                	fmul   %st(2),%st
 804bff6:	d8 ca                	fmul   %st(2),%st
 804bff8:	d8 4d 0c             	fmuls  0xc(%ebp)
 804bffb:	d9 ca                	fxch   %st(2)
 804bffd:	d8 c9                	fmul   %st(1),%st
 804bfff:	d8 cb                	fmul   %st(3),%st
 804c001:	d8 4d 10             	fmuls  0x10(%ebp)
 804c004:	de c2                	faddp  %st,%st(2)
 804c006:	d8 ca                	fmul   %st(2),%st
 804c008:	d8 ca                	fmul   %st(2),%st
 804c00a:	d8 4d 14             	fmuls  0x14(%ebp)
 804c00d:	de c1                	faddp  %st,%st(1)
 804c00f:	d9 c1                	fld    %st(1)
 804c011:	d8 ca                	fmul   %st(2),%st
 804c013:	de ca                	fmulp  %st,%st(2)
 804c015:	d9 c9                	fxch   %st(1)
 804c017:	d8 4d 18             	fmuls  0x18(%ebp)
 804c01a:	5d                   	pop    %ebp
 804c01b:	de c1                	faddp  %st,%st(1)
 804c01d:	c3                   	ret    
 804c01e:	66 90                	xchg   %ax,%ax

0804c020 <stb_box_face_vertex_axis_side>:
 804c020:	55                   	push   %ebp
 804c021:	89 e5                	mov    %esp,%ebp
 804c023:	8b 45 08             	mov    0x8(%ebp),%eax
 804c026:	8b 55 0c             	mov    0xc(%ebp),%edx
 804c029:	8d 04 40             	lea    (%eax,%eax,2),%eax
 804c02c:	8d 14 52             	lea    (%edx,%edx,2),%edx
 804c02f:	8d 04 82             	lea    (%edx,%eax,4),%eax
 804c032:	03 45 10             	add    0x10(%ebp),%eax
 804c035:	5d                   	pop    %ebp
 804c036:	8b 04 85 a0 d5 05 08 	mov    0x805d5a0(,%eax,4),%eax
 804c03d:	c3                   	ret    
 804c03e:	66 90                	xchg   %ax,%ax

0804c040 <stb_linear_controller>:
 804c040:	55                   	push   %ebp
 804c041:	89 e5                	mov    %esp,%ebp
 804c043:	8b 55 08             	mov    0x8(%ebp),%edx
 804c046:	d9 45 0c             	flds   0xc(%ebp)
 804c049:	d9 45 18             	flds   0x18(%ebp)
 804c04c:	d9 02                	flds   (%edx)
 804c04e:	dd e2                	fucom  %st(2)
 804c050:	df e0                	fnstsw %ax
 804c052:	9e                   	sahf   
 804c053:	7a 02                	jp     804c057 <stb_linear_controller+0x17>
 804c055:	74 79                	je     804c0d0 <stb_linear_controller+0x90>
 804c057:	dd e2                	fucom  %st(2)
 804c059:	df e0                	fnstsw %ax
 804c05b:	9e                   	sahf   
 804c05c:	77 7a                	ja     804c0d8 <stb_linear_controller+0x98>
 804c05e:	d9 e8                	fld1   
 804c060:	d9 ee                	fldz   
 804c062:	dd e2                	fucom  %st(2)
 804c064:	df e0                	fnstsw %ax
 804c066:	9e                   	sahf   
 804c067:	76 2f                	jbe    804c098 <stb_linear_controller+0x58>
 804c069:	d9 45 14             	flds   0x14(%ebp)
 804c06c:	d8 cc                	fmul   %st(4),%st
 804c06e:	d8 c3                	fadd   %st(3),%st
 804c070:	dd e1                	fucom  %st(1)
 804c072:	df e0                	fnstsw %ax
 804c074:	9e                   	sahf   
 804c075:	76 79                	jbe    804c0f0 <stb_linear_controller+0xb0>
 804c077:	dd d8                	fstp   %st(0)
 804c079:	d9 ca                	fxch   %st(2)
 804c07b:	d8 75 14             	fdivs  0x14(%ebp)
 804c07e:	de eb                	fsubrp %st,%st(3)
 804c080:	d9 c1                	fld    %st(1)
 804c082:	dd e3                	fucom  %st(3)
 804c084:	df e0                	fnstsw %ax
 804c086:	9e                   	sahf   
 804c087:	76 17                	jbe    804c0a0 <stb_linear_controller+0x60>
 804c089:	dd db                	fstp   %st(3)
 804c08b:	d9 c9                	fxch   %st(1)
 804c08d:	d9 ca                	fxch   %st(2)
 804c08f:	d9 c9                	fxch   %st(1)
 804c091:	d9 ca                	fxch   %st(2)
 804c093:	d9 c9                	fxch   %st(1)
 804c095:	eb 11                	jmp    804c0a8 <stb_linear_controller+0x68>
 804c097:	90                   	nop
 804c098:	dd d8                	fstp   %st(0)
 804c09a:	d9 ca                	fxch   %st(2)
 804c09c:	eb 0a                	jmp    804c0a8 <stb_linear_controller+0x68>
 804c09e:	66 90                	xchg   %ax,%ax
 804c0a0:	dd d8                	fstp   %st(0)
 804c0a2:	d9 ca                	fxch   %st(2)
 804c0a4:	8d 74 26 00          	lea    0x0(%esi,%eiz,1),%esi
 804c0a8:	d8 4d 10             	fmuls  0x10(%ebp)
 804c0ab:	de c1                	faddp  %st,%st(1)
 804c0ad:	dd e2                	fucom  %st(2)
 804c0af:	df e0                	fnstsw %ax
 804c0b1:	9e                   	sahf   
 804c0b2:	76 0c                	jbe    804c0c0 <stb_linear_controller+0x80>
 804c0b4:	dd d8                	fstp   %st(0)
 804c0b6:	d9 c9                	fxch   %st(1)
 804c0b8:	eb 0a                	jmp    804c0c4 <stb_linear_controller+0x84>
 804c0ba:	8d b6 00 00 00 00    	lea    0x0(%esi),%esi
 804c0c0:	dd da                	fstp   %st(2)
 804c0c2:	d9 c9                	fxch   %st(1)
 804c0c4:	de c9                	fmulp  %st,%st(1)
 804c0c6:	d9 1a                	fstps  (%edx)
 804c0c8:	eb 0c                	jmp    804c0d6 <stb_linear_controller+0x96>
 804c0ca:	8d b6 00 00 00 00    	lea    0x0(%esi),%esi
 804c0d0:	dd d8                	fstp   %st(0)
 804c0d2:	dd d8                	fstp   %st(0)
 804c0d4:	dd d8                	fstp   %st(0)
 804c0d6:	5d                   	pop    %ebp
 804c0d7:	c3                   	ret    
 804c0d8:	d9 ca                	fxch   %st(2)
 804c0da:	d9 e0                	fchs   
 804c0dc:	d9 ca                	fxch   %st(2)
 804c0de:	d9 e0                	fchs   
 804c0e0:	d9 e8                	fld1   
 804c0e2:	d9 e0                	fchs   
 804c0e4:	e9 77 ff ff ff       	jmp    804c060 <stb_linear_controller+0x20>
 804c0e9:	8d b4 26 00 00 00 00 	lea    0x0(%esi,%eiz,1),%esi
 804c0f0:	dd dc                	fstp   %st(4)
 804c0f2:	dd da                	fstp   %st(2)
 804c0f4:	d9 ca                	fxch   %st(2)
 804c0f6:	d9 c9                	fxch   %st(1)
 804c0f8:	eb ae                	jmp    804c0a8 <stb_linear_controller+0x68>
 804c0fa:	8d b6 00 00 00 00    	lea    0x0(%esi),%esi

0804c100 <stb_quadratic_controller>:
 804c100:	55                   	push   %ebp
 804c101:	89 e5                	mov    %esp,%ebp
 804c103:	d9 ee                	fldz   
 804c105:	5d                   	pop    %ebp
 804c106:	c3                   	ret    
 804c107:	89 f6                	mov    %esi,%esi
 804c109:	8d bc 27 00 00 00 00 	lea    0x0(%edi,%eiz,1),%edi

0804c110 <stb_float_eq>:
 804c110:	55                   	push   %ebp
 804c111:	ba 01 00 00 00       	mov    $0x1,%edx
 804c116:	89 e5                	mov    %esp,%ebp
 804c118:	d9 45 08             	flds   0x8(%ebp)
 804c11b:	d8 65 0c             	fsubs  0xc(%ebp)
 804c11e:	d9 e1                	fabs   
 804c120:	d9 45 10             	flds   0x10(%ebp)
 804c123:	da e9                	fucompp 
 804c125:	df e0                	fnstsw %ax
 804c127:	9e                   	sahf   
 804c128:	73 17                	jae    804c141 <stb_float_eq+0x31>
 804c12a:	8b 45 08             	mov    0x8(%ebp),%eax
 804c12d:	2b 45 0c             	sub    0xc(%ebp),%eax
 804c130:	89 c2                	mov    %eax,%edx
 804c132:	c1 fa 1f             	sar    $0x1f,%edx
 804c135:	31 d0                	xor    %edx,%eax
 804c137:	29 d0                	sub    %edx,%eax
 804c139:	31 d2                	xor    %edx,%edx
 804c13b:	3b 45 14             	cmp    0x14(%ebp),%eax
 804c13e:	0f 9e c2             	setle  %dl
 804c141:	89 d0                	mov    %edx,%eax
 804c143:	5d                   	pop    %ebp
 804c144:	c3                   	ret    
 804c145:	8d 74 26 00          	lea    0x0(%esi,%eiz,1),%esi
 804c149:	8d bc 27 00 00 00 00 	lea    0x0(%edi,%eiz,1),%edi

0804c150 <stb_is_prime>:
 804c150:	55                   	push   %ebp
 804c151:	89 e5                	mov    %esp,%ebp
 804c153:	56                   	push   %esi
 804c154:	53                   	push   %ebx
 804c155:	8b 5d 08             	mov    0x8(%ebp),%ebx
 804c158:	83 fb 01             	cmp    $0x1,%ebx
 804c15b:	0f 86 af 00 00 00    	jbe    804c210 <stb_is_prime+0xc0>
 804c161:	83 fb 02             	cmp    $0x2,%ebx
 804c164:	0f 84 96 00 00 00    	je     804c200 <stb_is_prime+0xb0>
 804c16a:	f6 c3 01             	test   $0x1,%bl
 804c16d:	0f 84 9d 00 00 00    	je     804c210 <stb_is_prime+0xc0>
 804c173:	89 d8                	mov    %ebx,%eax
 804c175:	ba ab aa aa aa       	mov    $0xaaaaaaab,%edx
 804c17a:	f7 e2                	mul    %edx
 804c17c:	d1 ea                	shr    %edx
 804c17e:	8d 04 52             	lea    (%edx,%edx,2),%eax
 804c181:	39 c3                	cmp    %eax,%ebx
 804c183:	0f 84 8f 00 00 00    	je     804c218 <stb_is_prime+0xc8>
 804c189:	83 fb 18             	cmp    $0x18,%ebx
 804c18c:	76 72                	jbe    804c200 <stb_is_prime+0xb0>
 804c18e:	89 d8                	mov    %ebx,%eax
 804c190:	ba cd cc cc cc       	mov    $0xcccccccd,%edx
 804c195:	f7 e2                	mul    %edx
 804c197:	c1 ea 02             	shr    $0x2,%edx
 804c19a:	8d 04 92             	lea    (%edx,%edx,4),%eax
 804c19d:	39 c3                	cmp    %eax,%ebx
 804c19f:	74 6f                	je     804c210 <stb_is_prime+0xc0>
 804c1a1:	89 d8                	mov    %ebx,%eax
 804c1a3:	ba 25 49 92 24       	mov    $0x24924925,%edx
 804c1a8:	f7 e2                	mul    %edx
 804c1aa:	89 d8                	mov    %ebx,%eax
 804c1ac:	b9 05 00 00 00       	mov    $0x5,%ecx
 804c1b1:	29 d0                	sub    %edx,%eax
 804c1b3:	d1 e8                	shr    %eax
 804c1b5:	01 c2                	add    %eax,%edx
 804c1b7:	c1 ea 02             	shr    $0x2,%edx
 804c1ba:	8d 04 d5 00 00 00 00 	lea    0x0(,%edx,8),%eax
 804c1c1:	29 d0                	sub    %edx,%eax
 804c1c3:	39 c3                	cmp    %eax,%ebx
 804c1c5:	75 20                	jne    804c1e7 <stb_is_prime+0x97>
 804c1c7:	eb 47                	jmp    804c210 <stb_is_prime+0xc0>
 804c1c9:	8d b4 26 00 00 00 00 	lea    0x0(%esi,%eiz,1),%esi
 804c1d0:	31 d2                	xor    %edx,%edx
 804c1d2:	89 d8                	mov    %ebx,%eax
 804c1d4:	f7 f1                	div    %ecx
 804c1d6:	85 d2                	test   %edx,%edx
 804c1d8:	74 36                	je     804c210 <stb_is_prime+0xc0>
 804c1da:	31 d2                	xor    %edx,%edx
 804c1dc:	89 d8                	mov    %ebx,%eax
 804c1de:	8d 71 02             	lea    0x2(%ecx),%esi
 804c1e1:	f7 f6                	div    %esi
 804c1e3:	85 d2                	test   %edx,%edx
 804c1e5:	74 29                	je     804c210 <stb_is_prime+0xc0>
 804c1e7:	83 c1 06             	add    $0x6,%ecx
 804c1ea:	89 c8                	mov    %ecx,%eax
 804c1ec:	0f af c1             	imul   %ecx,%eax
 804c1ef:	39 c8                	cmp    %ecx,%eax
 804c1f1:	0f 97 c2             	seta   %dl
 804c1f4:	39 d8                	cmp    %ebx,%eax
 804c1f6:	0f 96 c0             	setbe  %al
 804c1f9:	0f b6 c0             	movzbl %al,%eax
 804c1fc:	85 d0                	test   %edx,%eax
 804c1fe:	75 d0                	jne    804c1d0 <stb_is_prime+0x80>
 804c200:	b8 01 00 00 00       	mov    $0x1,%eax
 804c205:	5b                   	pop    %ebx
 804c206:	5e                   	pop    %esi
 804c207:	5d                   	pop    %ebp
 804c208:	c3                   	ret    
 804c209:	8d b4 26 00 00 00 00 	lea    0x0(%esi,%eiz,1),%esi
 804c210:	31 c0                	xor    %eax,%eax
 804c212:	5b                   	pop    %ebx
 804c213:	5e                   	pop    %esi
 804c214:	5d                   	pop    %ebp
 804c215:	c3                   	ret    
 804c216:	66 90                	xchg   %ax,%ax
 804c218:	31 c0                	xor    %eax,%eax
 804c21a:	83 fb 03             	cmp    $0x3,%ebx
 804c21d:	0f 94 c0             	sete   %al
 804c220:	5b                   	pop    %ebx
 804c221:	5e                   	pop    %esi
 804c222:	5d                   	pop    %ebp
 804c223:	c3                   	ret    
 804c224:	8d b6 00 00 00 00    	lea    0x0(%esi),%esi
 804c22a:	8d bf 00 00 00 00    	lea    0x0(%edi),%edi

0804c230 <stb_power_of_two_nearest_prime>:
 804c230:	80 3d c0 e2 05 08 00 	cmpb   $0x0,0x805e2c0
 804c237:	55                   	push   %ebp
 804c238:	89 e5                	mov    %esp,%ebp
 804c23a:	56                   	push   %esi
 804c23b:	53                   	push   %ebx
 804c23c:	8b 5d 08             	mov    0x8(%ebp),%ebx
 804c23f:	75 3a                	jne    804c27b <stb_power_of_two_nearest_prime+0x4b>
 804c241:	31 c0                	xor    %eax,%eax
 804c243:	31 c9                	xor    %ecx,%ecx
 804c245:	ba 01 00 00 00       	mov    $0x1,%edx
 804c24a:	eb 0b                	jmp    804c257 <stb_power_of_two_nearest_prime+0x27>
 804c24c:	8d 74 26 00          	lea    0x0(%esi,%eiz,1),%esi
 804c250:	0f b6 81 c0 e2 05 08 	movzbl 0x805e2c0(%ecx),%eax
 804c257:	89 d6                	mov    %edx,%esi
 804c259:	d3 e6                	shl    %cl,%esi
 804c25b:	8d 44 46 ff          	lea    -0x1(%esi,%eax,2),%eax
 804c25f:	88 81 c0 e2 05 08    	mov    %al,0x805e2c0(%ecx)
 804c265:	83 c1 01             	add    $0x1,%ecx
 804c268:	83 f9 20             	cmp    $0x20,%ecx
 804c26b:	75 e3                	jne    804c250 <stb_power_of_two_nearest_prime+0x20>
 804c26d:	c6 05 c1 e2 05 08 02 	movb   $0x2,0x805e2c1
 804c274:	c6 05 c0 e2 05 08 01 	movb   $0x1,0x805e2c0
 804c27b:	83 fb 1f             	cmp    $0x1f,%ebx
 804c27e:	b8 fb ff ff ff       	mov    $0xfffffffb,%eax
 804c283:	7f 07                	jg     804c28c <stb_power_of_two_nearest_prime+0x5c>
 804c285:	0f be 83 c0 e2 05 08 	movsbl 0x805e2c0(%ebx),%eax
 804c28c:	5b                   	pop    %ebx
 804c28d:	5e                   	pop    %esi
 804c28e:	5d                   	pop    %ebp
 804c28f:	c3                   	ret    

0804c290 <stb_linear_remap>:
 804c290:	55                   	push   %ebp
 804c291:	89 e5                	mov    %esp,%ebp
 804c293:	83 ec 04             	sub    $0x4,%esp
 804c296:	dd 45 10             	fldl   0x10(%ebp)
 804c299:	dd 45 20             	fldl   0x20(%ebp)
 804c29c:	dd 45 28             	fldl   0x28(%ebp)
 804c29f:	dd 45 08             	fldl   0x8(%ebp)
 804c2a2:	d8 e3                	fsub   %st(3),%st
 804c2a4:	d9 cb                	fxch   %st(3)
 804c2a6:	dc 6d 18             	fsubrl 0x18(%ebp)
 804c2a9:	d9 5d fc             	fstps  -0x4(%ebp)
 804c2ac:	d9 45 fc             	flds   -0x4(%ebp)
 804c2af:	de fb                	fdivrp %st,%st(3)
 804c2b1:	d8 e1                	fsub   %st(1),%st
 804c2b3:	d9 5d fc             	fstps  -0x4(%ebp)
 804c2b6:	d9 45 fc             	flds   -0x4(%ebp)
 804c2b9:	de ca                	fmulp  %st,%st(2)
 804c2bb:	c9                   	leave  
 804c2bc:	de c1                	faddp  %st,%st(1)
 804c2be:	c3                   	ret    
 804c2bf:	90                   	nop

0804c2c0 <stb_bitcount>:
 804c2c0:	55                   	push   %ebp
 804c2c1:	89 e5                	mov    %esp,%ebp
 804c2c3:	8b 45 08             	mov    0x8(%ebp),%eax
 804c2c6:	5d                   	pop    %ebp
 804c2c7:	89 c2                	mov    %eax,%edx
 804c2c9:	d1 e8                	shr    %eax
 804c2cb:	81 e2 55 55 55 55    	and    $0x55555555,%edx
 804c2d1:	25 55 55 55 55       	and    $0x55555555,%eax
 804c2d6:	01 d0                	add    %edx,%eax
 804c2d8:	89 c2                	mov    %eax,%edx
 804c2da:	c1 e8 02             	shr    $0x2,%eax
 804c2dd:	81 e2 33 33 33 33    	and    $0x33333333,%edx
 804c2e3:	25 33 33 33 33       	and    $0x33333333,%eax
 804c2e8:	01 d0                	add    %edx,%eax
 804c2ea:	89 c2                	mov    %eax,%edx
 804c2ec:	c1 ea 04             	shr    $0x4,%edx
 804c2ef:	8d 04 02             	lea    (%edx,%eax,1),%eax
 804c2f2:	25 0f 0f 0f 0f       	and    $0xf0f0f0f,%eax
 804c2f7:	89 c2                	mov    %eax,%edx
 804c2f9:	c1 ea 08             	shr    $0x8,%edx
 804c2fc:	8d 04 02             	lea    (%edx,%eax,1),%eax
 804c2ff:	89 c2                	mov    %eax,%edx
 804c301:	c1 ea 10             	shr    $0x10,%edx
 804c304:	8d 04 02             	lea    (%edx,%eax,1),%eax
 804c307:	25 ff 00 00 00       	and    $0xff,%eax
 804c30c:	c3                   	ret    
 804c30d:	8d 76 00             	lea    0x0(%esi),%esi

0804c310 <stb_bitreverse8>:
 804c310:	55                   	push   %ebp
 804c311:	89 e5                	mov    %esp,%ebp
 804c313:	0f b6 4d 08          	movzbl 0x8(%ebp),%ecx
 804c317:	5d                   	pop    %ebp
 804c318:	89 ca                	mov    %ecx,%edx
 804c31a:	83 e1 55             	and    $0x55,%ecx
 804c31d:	81 e2 aa 00 00 00    	and    $0xaa,%edx
 804c323:	d1 ea                	shr    %edx
 804c325:	8d 14 4a             	lea    (%edx,%ecx,2),%edx
 804c328:	89 d0                	mov    %edx,%eax
 804c32a:	83 e2 33             	and    $0x33,%edx
 804c32d:	25 cc 00 00 00       	and    $0xcc,%eax
 804c332:	c1 e8 02             	shr    $0x2,%eax
 804c335:	8d 04 90             	lea    (%eax,%edx,4),%eax
 804c338:	c0 c8 04             	ror    $0x4,%al
 804c33b:	0f b6 c0             	movzbl %al,%eax
 804c33e:	c3                   	ret    
 804c33f:	90                   	nop

0804c340 <stb_bitreverse>:
 804c340:	55                   	push   %ebp
 804c341:	89 e5                	mov    %esp,%ebp
 804c343:	8b 45 08             	mov    0x8(%ebp),%eax
 804c346:	5d                   	pop    %ebp
 804c347:	89 c2                	mov    %eax,%edx
 804c349:	25 55 55 55 55       	and    $0x55555555,%eax
 804c34e:	81 e2 aa aa aa aa    	and    $0xaaaaaaaa,%edx
 804c354:	01 c0                	add    %eax,%eax
 804c356:	d1 ea                	shr    %edx
 804c358:	09 d0                	or     %edx,%eax
 804c35a:	89 c2                	mov    %eax,%edx
 804c35c:	25 33 33 33 33       	and    $0x33333333,%eax
 804c361:	81 e2 cc cc cc cc    	and    $0xcccccccc,%edx
 804c367:	c1 ea 02             	shr    $0x2,%edx
 804c36a:	c1 e0 02             	shl    $0x2,%eax
 804c36d:	09 d0                	or     %edx,%eax
 804c36f:	89 c2                	mov    %eax,%edx
 804c371:	25 0f 0f 0f 0f       	and    $0xf0f0f0f,%eax
 804c376:	81 e2 f0 f0 f0 f0    	and    $0xf0f0f0f0,%edx
 804c37c:	c1 ea 04             	shr    $0x4,%edx
 804c37f:	c1 e0 04             	shl    $0x4,%eax
 804c382:	09 d0                	or     %edx,%eax
 804c384:	89 c2                	mov    %eax,%edx
 804c386:	25 ff 00 ff 00       	and    $0xff00ff,%eax
 804c38b:	81 e2 00 ff 00 ff    	and    $0xff00ff00,%edx
 804c391:	c1 ea 08             	shr    $0x8,%edx
 804c394:	c1 e0 08             	shl    $0x8,%eax
 804c397:	09 d0                	or     %edx,%eax
 804c399:	c1 c8 10             	ror    $0x10,%eax
 804c39c:	c3                   	ret    
 804c39d:	8d 76 00             	lea    0x0(%esi),%esi

0804c3a0 <stb_is_pow2>:
 804c3a0:	55                   	push   %ebp
 804c3a1:	89 e5                	mov    %esp,%ebp
 804c3a3:	8b 45 08             	mov    0x8(%ebp),%eax
 804c3a6:	5d                   	pop    %ebp
 804c3a7:	8d 50 ff             	lea    -0x1(%eax),%edx
 804c3aa:	85 c2                	test   %eax,%edx
 804c3ac:	0f 94 c0             	sete   %al
 804c3af:	0f b6 c0             	movzbl %al,%eax
 804c3b2:	c3                   	ret    
 804c3b3:	8d b6 00 00 00 00    	lea    0x0(%esi),%esi
 804c3b9:	8d bc 27 00 00 00 00 	lea    0x0(%edi,%eiz,1),%edi

0804c3c0 <stb_log2_floor>:
 804c3c0:	55                   	push   %ebp
 804c3c1:	89 e5                	mov    %esp,%ebp
 804c3c3:	8b 45 08             	mov    0x8(%ebp),%eax
 804c3c6:	3d ff 3f 00 00       	cmp    $0x3fff,%eax
 804c3cb:	77 1b                	ja     804c3e8 <stb_log2_floor+0x28>
 804c3cd:	83 f8 0f             	cmp    $0xf,%eax
 804c3d0:	76 4e                	jbe    804c420 <stb_log2_floor+0x60>
 804c3d2:	3d ff 01 00 00       	cmp    $0x1ff,%eax
 804c3d7:	77 57                	ja     804c430 <stb_log2_floor+0x70>
 804c3d9:	c1 e8 05             	shr    $0x5,%eax
 804c3dc:	0f be 80 84 d5 05 08 	movsbl 0x805d584(%eax),%eax
 804c3e3:	5d                   	pop    %ebp
 804c3e4:	83 c0 05             	add    $0x5,%eax
 804c3e7:	c3                   	ret    
 804c3e8:	3d ff ff ff 00       	cmp    $0xffffff,%eax
 804c3ed:	77 19                	ja     804c408 <stb_log2_floor+0x48>
 804c3ef:	3d ff ff 07 00       	cmp    $0x7ffff,%eax
 804c3f4:	77 4a                	ja     804c440 <stb_log2_floor+0x80>
 804c3f6:	c1 e8 0f             	shr    $0xf,%eax
 804c3f9:	0f be 80 84 d5 05 08 	movsbl 0x805d584(%eax),%eax
 804c400:	5d                   	pop    %ebp
 804c401:	83 c0 0f             	add    $0xf,%eax
 804c404:	c3                   	ret    
 804c405:	8d 76 00             	lea    0x0(%esi),%esi
 804c408:	3d ff ff ff 1f       	cmp    $0x1fffffff,%eax
 804c40d:	76 41                	jbe    804c450 <stb_log2_floor+0x90>
 804c40f:	c1 e8 1e             	shr    $0x1e,%eax
 804c412:	0f be 80 84 d5 05 08 	movsbl 0x805d584(%eax),%eax
 804c419:	5d                   	pop    %ebp
 804c41a:	83 c0 1e             	add    $0x1e,%eax
 804c41d:	c3                   	ret    
 804c41e:	66 90                	xchg   %ax,%ax
 804c420:	0f be 80 84 d5 05 08 	movsbl 0x805d584(%eax),%eax
 804c427:	5d                   	pop    %ebp
 804c428:	c3                   	ret    
 804c429:	8d b4 26 00 00 00 00 	lea    0x0(%esi,%eiz,1),%esi
 804c430:	c1 e8 0a             	shr    $0xa,%eax
 804c433:	0f be 80 84 d5 05 08 	movsbl 0x805d584(%eax),%eax
 804c43a:	5d                   	pop    %ebp
 804c43b:	83 c0 0a             	add    $0xa,%eax
 804c43e:	c3                   	ret    
 804c43f:	90                   	nop
 804c440:	c1 e8 14             	shr    $0x14,%eax
 804c443:	0f be 80 84 d5 05 08 	movsbl 0x805d584(%eax),%eax
 804c44a:	5d                   	pop    %ebp
 804c44b:	83 c0 14             	add    $0x14,%eax
 804c44e:	c3                   	ret    
 804c44f:	90                   	nop
 804c450:	c1 e8 19             	shr    $0x19,%eax
 804c453:	0f be 80 84 d5 05 08 	movsbl 0x805d584(%eax),%eax
 804c45a:	5d                   	pop    %ebp
 804c45b:	83 c0 19             	add    $0x19,%eax
 804c45e:	c3                   	ret    
 804c45f:	90                   	nop

0804c460 <stb_log2_ceil>:
 804c460:	55                   	push   %ebp
 804c461:	89 e5                	mov    %esp,%ebp
 804c463:	83 ec 04             	sub    $0x4,%esp
 804c466:	8b 45 08             	mov    0x8(%ebp),%eax
 804c469:	8d 50 ff             	lea    -0x1(%eax),%edx
 804c46c:	85 c2                	test   %eax,%edx
 804c46e:	74 10                	je     804c480 <stb_log2_ceil+0x20>
 804c470:	89 04 24             	mov    %eax,(%esp)
 804c473:	e8 48 ff ff ff       	call   804c3c0 <stb_log2_floor>
 804c478:	c9                   	leave  
 804c479:	83 c0 01             	add    $0x1,%eax
 804c47c:	c3                   	ret    
 804c47d:	8d 76 00             	lea    0x0(%esi),%esi
 804c480:	c9                   	leave  
 804c481:	e9 3a ff ff ff       	jmp    804c3c0 <stb_log2_floor>
 804c486:	8d 76 00             	lea    0x0(%esi),%esi
 804c489:	8d bc 27 00 00 00 00 	lea    0x0(%edi,%eiz,1),%edi

0804c490 <stb_highbit8>:
 804c490:	55                   	push   %ebp
 804c491:	89 e5                	mov    %esp,%ebp
 804c493:	0f b6 45 08          	movzbl 0x8(%ebp),%eax
 804c497:	89 45 08             	mov    %eax,0x8(%ebp)
 804c49a:	5d                   	pop    %ebp
 804c49b:	e9 c0 ff ff ff       	jmp    804c460 <stb_log2_ceil>

0804c4a0 <stb_lowbit8>:
 804c4a0:	55                   	push   %ebp
 804c4a1:	89 e5                	mov    %esp,%ebp
 804c4a3:	8b 55 08             	mov    0x8(%ebp),%edx
 804c4a6:	89 d0                	mov    %edx,%eax
 804c4a8:	83 e0 0f             	and    $0xf,%eax
 804c4ab:	0f be 80 74 d5 05 08 	movsbl 0x805d574(%eax),%eax
 804c4b2:	85 c0                	test   %eax,%eax
 804c4b4:	78 02                	js     804c4b8 <stb_lowbit8+0x18>
 804c4b6:	5d                   	pop    %ebp
 804c4b7:	c3                   	ret    
 804c4b8:	c1 ea 04             	shr    $0x4,%edx
 804c4bb:	83 e2 0f             	and    $0xf,%edx
 804c4be:	0f be 82 74 d5 05 08 	movsbl 0x805d574(%edx),%eax
 804c4c5:	85 c0                	test   %eax,%eax
 804c4c7:	78 ed                	js     804c4b6 <stb_lowbit8+0x16>
 804c4c9:	83 c0 04             	add    $0x4,%eax
 804c4cc:	5d                   	pop    %ebp
 804c4cd:	c3                   	ret    
 804c4ce:	66 90                	xchg   %ax,%ax

0804c4d0 <stb__intcmp>:
 804c4d0:	55                   	push   %ebp
 804c4d1:	8b 15 48 4a 06 08    	mov    0x8064a48,%edx
 804c4d7:	89 e5                	mov    %esp,%ebp
 804c4d9:	8b 45 0c             	mov    0xc(%ebp),%eax
 804c4dc:	53                   	push   %ebx
 804c4dd:	8b 5d 08             	mov    0x8(%ebp),%ebx
 804c4e0:	8b 0c 10             	mov    (%eax,%edx,1),%ecx
 804c4e3:	b8 ff ff ff ff       	mov    $0xffffffff,%eax
 804c4e8:	39 0c 13             	cmp    %ecx,(%ebx,%edx,1)
 804c4eb:	7c 06                	jl     804c4f3 <stb__intcmp+0x23>
 804c4ed:	0f 9f c0             	setg   %al
 804c4f0:	0f b6 c0             	movzbl %al,%eax
 804c4f3:	5b                   	pop    %ebx
 804c4f4:	5d                   	pop    %ebp
 804c4f5:	c3                   	ret    
 804c4f6:	8d 76 00             	lea    0x0(%esi),%esi
 804c4f9:	8d bc 27 00 00 00 00 	lea    0x0(%edi,%eiz,1),%edi

0804c500 <stb__charcmp>:
 804c500:	55                   	push   %ebp
 804c501:	a1 4c 4a 06 08       	mov    0x8064a4c,%eax
 804c506:	89 e5                	mov    %esp,%ebp
 804c508:	8b 55 08             	mov    0x8(%ebp),%edx
 804c50b:	0f b6 0c 02          	movzbl (%edx,%eax,1),%ecx
 804c50f:	8b 55 0c             	mov    0xc(%ebp),%edx
 804c512:	0f b6 14 02          	movzbl (%edx,%eax,1),%edx
 804c516:	b8 ff ff ff ff       	mov    $0xffffffff,%eax
 804c51b:	39 d1                	cmp    %edx,%ecx
 804c51d:	7c 06                	jl     804c525 <stb__charcmp+0x25>
 804c51f:	0f 9f c0             	setg   %al
 804c522:	0f b6 c0             	movzbl %al,%eax
 804c525:	5d                   	pop    %ebp
 804c526:	c3                   	ret    
 804c527:	89 f6                	mov    %esi,%esi
 804c529:	8d bc 27 00 00 00 00 	lea    0x0(%edi,%eiz,1),%edi

0804c530 <stb__floatcmp>:
 804c530:	55                   	push   %ebp
 804c531:	a1 54 4a 06 08       	mov    0x8064a54,%eax
 804c536:	89 e5                	mov    %esp,%ebp
 804c538:	8b 55 08             	mov    0x8(%ebp),%edx
 804c53b:	d9 04 02             	flds   (%edx,%eax,1)
 804c53e:	8b 55 0c             	mov    0xc(%ebp),%edx
 804c541:	d9 04 02             	flds   (%edx,%eax,1)
 804c544:	ba ff ff ff ff       	mov    $0xffffffff,%edx
 804c549:	dd e1                	fucom  %st(1)
 804c54b:	df e0                	fnstsw %ax
 804c54d:	9e                   	sahf   
 804c54e:	77 10                	ja     804c560 <stb__floatcmp+0x30>
 804c550:	d9 c9                	fxch   %st(1)
 804c552:	da e9                	fucompp 
 804c554:	df e0                	fnstsw %ax
 804c556:	31 d2                	xor    %edx,%edx
 804c558:	9e                   	sahf   
 804c559:	0f 97 c2             	seta   %dl
 804c55c:	eb 06                	jmp    804c564 <stb__floatcmp+0x34>
 804c55e:	66 90                	xchg   %ax,%ax
 804c560:	dd d8                	fstp   %st(0)
 804c562:	dd d8                	fstp   %st(0)
 804c564:	89 d0                	mov    %edx,%eax
 804c566:	5d                   	pop    %ebp
 804c567:	c3                   	ret    
 804c568:	90                   	nop
 804c569:	8d b4 26 00 00 00 00 	lea    0x0(%esi,%eiz,1),%esi

0804c570 <stb__doublecmp>:
 804c570:	55                   	push   %ebp
 804c571:	a1 58 4a 06 08       	mov    0x8064a58,%eax
 804c576:	89 e5                	mov    %esp,%ebp
 804c578:	8b 55 08             	mov    0x8(%ebp),%edx
 804c57b:	dd 04 02             	fldl   (%edx,%eax,1)
 804c57e:	8b 55 0c             	mov    0xc(%ebp),%edx
 804c581:	dd 04 02             	fldl   (%edx,%eax,1)
 804c584:	ba ff ff ff ff       	mov    $0xffffffff,%edx
 804c589:	dd e1                	fucom  %st(1)
 804c58b:	df e0                	fnstsw %ax
 804c58d:	9e                   	sahf   
 804c58e:	77 10                	ja     804c5a0 <stb__doublecmp+0x30>
 804c590:	d9 c9                	fxch   %st(1)
 804c592:	da e9                	fucompp 
 804c594:	df e0                	fnstsw %ax
 804c596:	31 d2                	xor    %edx,%edx
 804c598:	9e                   	sahf   
 804c599:	0f 97 c2             	seta   %dl
 804c59c:	eb 06                	jmp    804c5a4 <stb__doublecmp+0x34>
 804c59e:	66 90                	xchg   %ax,%ax
 804c5a0:	dd d8                	fstp   %st(0)
 804c5a2:	dd d8                	fstp   %st(0)
 804c5a4:	89 d0                	mov    %edx,%eax
 804c5a6:	5d                   	pop    %ebp
 804c5a7:	c3                   	ret    
 804c5a8:	90                   	nop
 804c5a9:	8d b4 26 00 00 00 00 	lea    0x0(%esi,%eiz,1),%esi

0804c5b0 <stb_intcmp>:
 804c5b0:	55                   	push   %ebp
 804c5b1:	89 e5                	mov    %esp,%ebp
 804c5b3:	8b 45 08             	mov    0x8(%ebp),%eax
 804c5b6:	5d                   	pop    %ebp
 804c5b7:	a3 48 4a 06 08       	mov    %eax,0x8064a48
 804c5bc:	b8 d0 c4 04 08       	mov    $0x804c4d0,%eax
 804c5c1:	c3                   	ret    
 804c5c2:	8d b4 26 00 00 00 00 	lea    0x0(%esi,%eiz,1),%esi
 804c5c9:	8d bc 27 00 00 00 00 	lea    0x0(%edi,%eiz,1),%edi

0804c5d0 <stb_charcmp>:
 804c5d0:	55                   	push   %ebp
 804c5d1:	89 e5                	mov    %esp,%ebp
 804c5d3:	8b 45 08             	mov    0x8(%ebp),%eax
 804c5d6:	5d                   	pop    %ebp
 804c5d7:	a3 4c 4a 06 08       	mov    %eax,0x8064a4c
 804c5dc:	b8 00 c5 04 08       	mov    $0x804c500,%eax
 804c5e1:	c3                   	ret    
 804c5e2:	8d b4 26 00 00 00 00 	lea    0x0(%esi,%eiz,1),%esi
 804c5e9:	8d bc 27 00 00 00 00 	lea    0x0(%edi,%eiz,1),%edi

0804c5f0 <stb_qsort_strcmp>:
 804c5f0:	55                   	push   %ebp
 804c5f1:	89 e5                	mov    %esp,%ebp
 804c5f3:	8b 45 08             	mov    0x8(%ebp),%eax
 804c5f6:	5d                   	pop    %ebp
 804c5f7:	a3 50 4a 06 08       	mov    %eax,0x8064a50
 804c5fc:	b8 80 f8 04 08       	mov    $0x804f880,%eax
 804c601:	c3                   	ret    
 804c602:	8d b4 26 00 00 00 00 	lea    0x0(%esi,%eiz,1),%esi
 804c609:	8d bc 27 00 00 00 00 	lea    0x0(%edi,%eiz,1),%edi

0804c610 <stb_qsort_stricmp>:
 804c610:	55                   	push   %ebp
 804c611:	89 e5                	mov    %esp,%ebp
 804c613:	8b 45 08             	mov    0x8(%ebp),%eax
 804c616:	5d                   	pop    %ebp
 804c617:	a3 50 4a 06 08       	mov    %eax,0x8064a50
 804c61c:	b8 a0 97 05 08       	mov    $0x80597a0,%eax
 804c621:	c3                   	ret    
 804c622:	8d b4 26 00 00 00 00 	lea    0x0(%esi,%eiz,1),%esi
 804c629:	8d bc 27 00 00 00 00 	lea    0x0(%edi,%eiz,1),%edi

0804c630 <stb_floatcmp>:
 804c630:	55                   	push   %ebp
 804c631:	89 e5                	mov    %esp,%ebp
 804c633:	8b 45 08             	mov    0x8(%ebp),%eax
 804c636:	5d                   	pop    %ebp
 804c637:	a3 54 4a 06 08       	mov    %eax,0x8064a54
 804c63c:	b8 30 c5 04 08       	mov    $0x804c530,%eax
 804c641:	c3                   	ret    
 804c642:	8d b4 26 00 00 00 00 	lea    0x0(%esi,%eiz,1),%esi
 804c649:	8d bc 27 00 00 00 00 	lea    0x0(%edi,%eiz,1),%edi

0804c650 <stb_doublecmp>:
 804c650:	55                   	push   %ebp
 804c651:	89 e5                	mov    %esp,%ebp
 804c653:	8b 45 08             	mov    0x8(%ebp),%eax
 804c656:	5d                   	pop    %ebp
 804c657:	a3 58 4a 06 08       	mov    %eax,0x8064a58
 804c65c:	b8 70 c5 04 08       	mov    $0x804c570,%eax
 804c661:	c3                   	ret    
 804c662:	8d b4 26 00 00 00 00 	lea    0x0(%esi,%eiz,1),%esi
 804c669:	8d bc 27 00 00 00 00 	lea    0x0(%edi,%eiz,1),%edi

0804c670 <stb_probe_guess>:
 804c670:	55                   	push   %ebp
 804c671:	89 e5                	mov    %esp,%ebp
 804c673:	53                   	push   %ebx
 804c674:	8b 48 0c             	mov    0xc(%eax),%ecx
 804c677:	83 f9 01             	cmp    $0x1,%ecx
 804c67a:	74 24                	je     804c6a0 <stb_probe_guess+0x30>
 804c67c:	7e 3a                	jle    804c6b8 <stb_probe_guess+0x48>
 804c67e:	83 f9 03             	cmp    $0x3,%ecx
 804c681:	7f 15                	jg     804c698 <stb_probe_guess+0x28>
 804c683:	8b 48 04             	mov    0x4(%eax),%ecx
 804c686:	89 48 08             	mov    %ecx,0x8(%eax)
 804c689:	89 0a                	mov    %ecx,(%edx)
 804c68b:	b8 01 00 00 00       	mov    $0x1,%eax
 804c690:	5b                   	pop    %ebx
 804c691:	5d                   	pop    %ebp
 804c692:	c3                   	ret    
 804c693:	90                   	nop
 804c694:	8d 74 26 00          	lea    0x0(%esi,%eiz,1),%esi
 804c698:	8b 48 08             	mov    0x8(%eax),%ecx
 804c69b:	eb ec                	jmp    804c689 <stb_probe_guess+0x19>
 804c69d:	8d 76 00             	lea    0x0(%esi),%esi
 804c6a0:	8b 18                	mov    (%eax),%ebx
 804c6a2:	8b 48 04             	mov    0x4(%eax),%ecx
 804c6a5:	39 cb                	cmp    %ecx,%ebx
 804c6a7:	74 27                	je     804c6d0 <stb_probe_guess+0x60>
 804c6a9:	83 c1 01             	add    $0x1,%ecx
 804c6ac:	29 d9                	sub    %ebx,%ecx
 804c6ae:	d1 e9                	shr    %ecx
 804c6b0:	01 d9                	add    %ebx,%ecx
 804c6b2:	89 48 08             	mov    %ecx,0x8(%eax)
 804c6b5:	eb d2                	jmp    804c689 <stb_probe_guess+0x19>
 804c6b7:	90                   	nop
 804c6b8:	85 c9                	test   %ecx,%ecx
 804c6ba:	75 dc                	jne    804c698 <stb_probe_guess+0x28>
 804c6bc:	8b 18                	mov    (%eax),%ebx
 804c6be:	8b 48 04             	mov    0x4(%eax),%ecx
 804c6c1:	39 cb                	cmp    %ecx,%ebx
 804c6c3:	74 0b                	je     804c6d0 <stb_probe_guess+0x60>
 804c6c5:	29 d9                	sub    %ebx,%ecx
 804c6c7:	d1 e9                	shr    %ecx
 804c6c9:	01 d9                	add    %ebx,%ecx
 804c6cb:	89 48 08             	mov    %ecx,0x8(%eax)
 804c6ce:	eb b9                	jmp    804c689 <stb_probe_guess+0x19>
 804c6d0:	89 1a                	mov    %ebx,(%edx)
 804c6d2:	31 c0                	xor    %eax,%eax
 804c6d4:	eb ba                	jmp    804c690 <stb_probe_guess+0x20>
 804c6d6:	8d 76 00             	lea    0x0(%esi),%esi
 804c6d9:	8d bc 27 00 00 00 00 	lea    0x0(%edi,%eiz,1),%edi

0804c6e0 <stb_probe>:
 804c6e0:	55                   	push   %ebp
 804c6e1:	89 e5                	mov    %esp,%ebp
 804c6e3:	53                   	push   %ebx
 804c6e4:	8b 45 08             	mov    0x8(%ebp),%eax
 804c6e7:	8b 5d 0c             	mov    0xc(%ebp),%ebx
 804c6ea:	8b 55 10             	mov    0x10(%ebp),%edx
 804c6ed:	8b 48 0c             	mov    0xc(%eax),%ecx
 804c6f0:	83 f9 01             	cmp    $0x1,%ecx
 804c6f3:	74 33                	je     804c728 <stb_probe+0x48>
 804c6f5:	7e 51                	jle    804c748 <stb_probe+0x68>
 804c6f7:	83 f9 03             	cmp    $0x3,%ecx
 804c6fa:	7e 0c                	jle    804c708 <stb_probe+0x28>
 804c6fc:	5b                   	pop    %ebx
 804c6fd:	5d                   	pop    %ebp
 804c6fe:	66 90                	xchg   %ax,%ax
 804c700:	e9 6b ff ff ff       	jmp    804c670 <stb_probe_guess>
 804c705:	8d 76 00             	lea    0x0(%esi),%esi
 804c708:	85 db                	test   %ebx,%ebx
 804c70a:	7e 2c                	jle    804c738 <stb_probe+0x58>
 804c70c:	8b 48 04             	mov    0x4(%eax),%ecx
 804c70f:	83 c1 01             	add    $0x1,%ecx
 804c712:	89 08                	mov    %ecx,(%eax)
 804c714:	03 48 10             	add    0x10(%eax),%ecx
 804c717:	d1 60 10             	shll   0x10(%eax)
 804c71a:	89 48 04             	mov    %ecx,0x4(%eax)
 804c71d:	5b                   	pop    %ebx
 804c71e:	5d                   	pop    %ebp
 804c71f:	e9 4c ff ff ff       	jmp    804c670 <stb_probe_guess>
 804c724:	8d 74 26 00          	lea    0x0(%esi,%eiz,1),%esi
 804c728:	85 db                	test   %ebx,%ebx
 804c72a:	78 3c                	js     804c768 <stb_probe+0x88>
 804c72c:	8b 48 08             	mov    0x8(%eax),%ecx
 804c72f:	89 08                	mov    %ecx,(%eax)
 804c731:	5b                   	pop    %ebx
 804c732:	5d                   	pop    %ebp
 804c733:	e9 38 ff ff ff       	jmp    804c670 <stb_probe_guess>
 804c738:	83 f9 02             	cmp    $0x2,%ecx
 804c73b:	0f 95 c1             	setne  %cl
 804c73e:	0f b6 c9             	movzbl %cl,%ecx
 804c741:	89 48 0c             	mov    %ecx,0xc(%eax)
 804c744:	eb b6                	jmp    804c6fc <stb_probe+0x1c>
 804c746:	66 90                	xchg   %ax,%ax
 804c748:	85 c9                	test   %ecx,%ecx
 804c74a:	75 b0                	jne    804c6fc <stb_probe+0x1c>
 804c74c:	85 db                	test   %ebx,%ebx
 804c74e:	7e 10                	jle    804c760 <stb_probe+0x80>
 804c750:	8b 48 08             	mov    0x8(%eax),%ecx
 804c753:	83 c1 01             	add    $0x1,%ecx
 804c756:	89 08                	mov    %ecx,(%eax)
 804c758:	5b                   	pop    %ebx
 804c759:	5d                   	pop    %ebp
 804c75a:	e9 11 ff ff ff       	jmp    804c670 <stb_probe_guess>
 804c75f:	90                   	nop
 804c760:	8b 48 08             	mov    0x8(%eax),%ecx
 804c763:	89 48 04             	mov    %ecx,0x4(%eax)
 804c766:	eb 94                	jmp    804c6fc <stb_probe+0x1c>
 804c768:	8b 48 08             	mov    0x8(%eax),%ecx
 804c76b:	83 e9 01             	sub    $0x1,%ecx
 804c76e:	89 48 04             	mov    %ecx,0x4(%eax)
 804c771:	eb 89                	jmp    804c6fc <stb_probe+0x1c>
 804c773:	8d b6 00 00 00 00    	lea    0x0(%esi),%esi
 804c779:	8d bc 27 00 00 00 00 	lea    0x0(%edi,%eiz,1),%edi

0804c780 <stb_search_binary>:
 804c780:	55                   	push   %ebp
 804c781:	89 e5                	mov    %esp,%ebp
 804c783:	83 ec 10             	sub    $0x10,%esp
 804c786:	8b 55 0c             	mov    0xc(%ebp),%edx
 804c789:	8b 4d 10             	mov    0x10(%ebp),%ecx
 804c78c:	8b 45 08             	mov    0x8(%ebp),%eax
 804c78f:	39 d1                	cmp    %edx,%ecx
 804c791:	7d 05                	jge    804c798 <stb_search_binary+0x18>
 804c793:	8d 42 ff             	lea    -0x1(%edx),%eax
 804c796:	c9                   	leave  
 804c797:	c3                   	ret    
 804c798:	89 10                	mov    %edx,(%eax)
 804c79a:	31 d2                	xor    %edx,%edx
 804c79c:	83 7d 14 00          	cmpl   $0x0,0x14(%ebp)
 804c7a0:	89 48 04             	mov    %ecx,0x4(%eax)
 804c7a3:	0f 94 c2             	sete   %dl
 804c7a6:	89 50 0c             	mov    %edx,0xc(%eax)
 804c7a9:	8d 55 fc             	lea    -0x4(%ebp),%edx
 804c7ac:	e8 bf fe ff ff       	call   804c670 <stb_probe_guess>
 804c7b1:	8b 45 fc             	mov    -0x4(%ebp),%eax
 804c7b4:	c9                   	leave  
 804c7b5:	c3                   	ret    
 804c7b6:	8d 76 00             	lea    0x0(%esi),%esi
 804c7b9:	8d bc 27 00 00 00 00 	lea    0x0(%edi,%eiz,1),%edi

0804c7c0 <stb_search_open>:
 804c7c0:	55                   	push   %ebp
 804c7c1:	89 e5                	mov    %esp,%ebp
 804c7c3:	83 ec 10             	sub    $0x10,%esp
 804c7c6:	8b 55 0c             	mov    0xc(%ebp),%edx
 804c7c9:	8b 45 08             	mov    0x8(%ebp),%eax
 804c7cc:	89 10                	mov    %edx,(%eax)
 804c7ce:	83 c2 04             	add    $0x4,%edx
 804c7d1:	83 7d 10 01          	cmpl   $0x1,0x10(%ebp)
 804c7d5:	89 50 04             	mov    %edx,0x4(%eax)
 804c7d8:	c7 40 10 04 00 00 00 	movl   $0x4,0x10(%eax)
 804c7df:	19 d2                	sbb    %edx,%edx
 804c7e1:	f7 d2                	not    %edx
 804c7e3:	83 c2 03             	add    $0x3,%edx
 804c7e6:	89 50 0c             	mov    %edx,0xc(%eax)
 804c7e9:	8d 55 fc             	lea    -0x4(%ebp),%edx
 804c7ec:	e8 7f fe ff ff       	call   804c670 <stb_probe_guess>
 804c7f1:	8b 45 fc             	mov    -0x4(%ebp),%eax
 804c7f4:	c9                   	leave  
 804c7f5:	c3                   	ret    
 804c7f6:	8d 76 00             	lea    0x0(%esi),%esi
 804c7f9:	8d bc 27 00 00 00 00 	lea    0x0(%edi,%eiz,1),%edi

0804c800 <stb_plural>:
 804c800:	55                   	push   %ebp
 804c801:	b8 22 d3 05 08       	mov    $0x805d322,%eax
 804c806:	89 e5                	mov    %esp,%ebp
 804c808:	83 7d 08 01          	cmpl   $0x1,0x8(%ebp)
 804c80c:	74 05                	je     804c813 <stb_plural+0x13>
 804c80e:	b8 55 c8 05 08       	mov    $0x805c855,%eax
 804c813:	5d                   	pop    %ebp
 804c814:	c3                   	ret    
 804c815:	8d 74 26 00          	lea    0x0(%esi,%eiz,1),%esi
 804c819:	8d bc 27 00 00 00 00 	lea    0x0(%edi,%eiz,1),%edi

0804c820 <stb_prefix>:
 804c820:	55                   	push   %ebp
 804c821:	31 c0                	xor    %eax,%eax
 804c823:	89 e5                	mov    %esp,%ebp
 804c825:	56                   	push   %esi
 804c826:	53                   	push   %ebx
 804c827:	8b 75 08             	mov    0x8(%ebp),%esi
 804c82a:	8b 5d 0c             	mov    0xc(%ebp),%ebx
 804c82d:	8d 76 00             	lea    0x0(%esi),%esi
 804c830:	0f b6 14 03          	movzbl (%ebx,%eax,1),%edx
 804c834:	84 d2                	test   %dl,%dl
 804c836:	74 18                	je     804c850 <stb_prefix+0x30>
 804c838:	0f b6 0c 06          	movzbl (%esi,%eax,1),%ecx
 804c83c:	83 c0 01             	add    $0x1,%eax
 804c83f:	38 ca                	cmp    %cl,%dl
 804c841:	74 ed                	je     804c830 <stb_prefix+0x10>
 804c843:	31 c0                	xor    %eax,%eax
 804c845:	5b                   	pop    %ebx
 804c846:	5e                   	pop    %esi
 804c847:	5d                   	pop    %ebp
 804c848:	c3                   	ret    
 804c849:	8d b4 26 00 00 00 00 	lea    0x0(%esi,%eiz,1),%esi
 804c850:	b8 01 00 00 00       	mov    $0x1,%eax
 804c855:	5b                   	pop    %ebx
 804c856:	5e                   	pop    %esi
 804c857:	5d                   	pop    %ebp
 804c858:	c3                   	ret    
 804c859:	8d b4 26 00 00 00 00 	lea    0x0(%esi,%eiz,1),%esi

0804c860 <stb_prefix_count>:
 804c860:	55                   	push   %ebp
 804c861:	89 e5                	mov    %esp,%ebp
 804c863:	8b 4d 0c             	mov    0xc(%ebp),%ecx
 804c866:	53                   	push   %ebx
 804c867:	8b 5d 08             	mov    0x8(%ebp),%ebx
 804c86a:	0f b6 11             	movzbl (%ecx),%edx
 804c86d:	84 d2                	test   %dl,%dl
 804c86f:	74 24                	je     804c895 <stb_prefix_count+0x35>
 804c871:	31 c0                	xor    %eax,%eax
 804c873:	3a 13                	cmp    (%ebx),%dl
 804c875:	74 0e                	je     804c885 <stb_prefix_count+0x25>
 804c877:	eb 1c                	jmp    804c895 <stb_prefix_count+0x35>
 804c879:	8d b4 26 00 00 00 00 	lea    0x0(%esi,%eiz,1),%esi
 804c880:	3a 14 03             	cmp    (%ebx,%eax,1),%dl
 804c883:	75 0d                	jne    804c892 <stb_prefix_count+0x32>
 804c885:	83 c0 01             	add    $0x1,%eax
 804c888:	0f b6 14 01          	movzbl (%ecx,%eax,1),%edx
 804c88c:	84 d2                	test   %dl,%dl
 804c88e:	66 90                	xchg   %ax,%ax
 804c890:	75 ee                	jne    804c880 <stb_prefix_count+0x20>
 804c892:	5b                   	pop    %ebx
 804c893:	5d                   	pop    %ebp
 804c894:	c3                   	ret    
 804c895:	31 c0                	xor    %eax,%eax
 804c897:	eb f9                	jmp    804c892 <stb_prefix_count+0x32>
 804c899:	8d b4 26 00 00 00 00 	lea    0x0(%esi,%eiz,1),%esi

0804c8a0 <stb_skipnewline>:
 804c8a0:	55                   	push   %ebp
 804c8a1:	89 e5                	mov    %esp,%ebp
 804c8a3:	8b 45 08             	mov    0x8(%ebp),%eax
 804c8a6:	0f b6 10             	movzbl (%eax),%edx
 804c8a9:	80 fa 0a             	cmp    $0xa,%dl
 804c8ac:	75 1a                	jne    804c8c8 <stb_skipnewline+0x28>
 804c8ae:	83 c0 01             	add    $0x1,%eax
 804c8b1:	0f be d2             	movsbl %dl,%edx
 804c8b4:	0f be 08             	movsbl (%eax),%ecx
 804c8b7:	5d                   	pop    %ebp
 804c8b8:	8d 14 11             	lea    (%ecx,%edx,1),%edx
 804c8bb:	83 fa 17             	cmp    $0x17,%edx
 804c8be:	0f 94 c2             	sete   %dl
 804c8c1:	0f b6 d2             	movzbl %dl,%edx
 804c8c4:	01 d0                	add    %edx,%eax
 804c8c6:	c3                   	ret    
 804c8c7:	90                   	nop
 804c8c8:	80 fa 0d             	cmp    $0xd,%dl
 804c8cb:	74 e1                	je     804c8ae <stb_skipnewline+0xe>
 804c8cd:	5d                   	pop    %ebp
 804c8ce:	c3                   	ret    
 804c8cf:	90                   	nop

0804c8d0 <stb_strchr2>:
 804c8d0:	55                   	push   %ebp
 804c8d1:	89 e5                	mov    %esp,%ebp
 804c8d3:	53                   	push   %ebx
 804c8d4:	8b 45 08             	mov    0x8(%ebp),%eax
 804c8d7:	0f b6 4d 0c          	movzbl 0xc(%ebp),%ecx
 804c8db:	0f b6 5d 10          	movzbl 0x10(%ebp),%ebx
 804c8df:	0f b6 10             	movzbl (%eax),%edx
 804c8e2:	84 d2                	test   %dl,%dl
 804c8e4:	75 10                	jne    804c8f6 <stb_strchr2+0x26>
 804c8e6:	eb 18                	jmp    804c900 <stb_strchr2+0x30>
 804c8e8:	38 da                	cmp    %bl,%dl
 804c8ea:	74 0e                	je     804c8fa <stb_strchr2+0x2a>
 804c8ec:	83 c0 01             	add    $0x1,%eax
 804c8ef:	0f b6 10             	movzbl (%eax),%edx
 804c8f2:	84 d2                	test   %dl,%dl
 804c8f4:	74 0a                	je     804c900 <stb_strchr2+0x30>
 804c8f6:	38 ca                	cmp    %cl,%dl
 804c8f8:	75 ee                	jne    804c8e8 <stb_strchr2+0x18>
 804c8fa:	5b                   	pop    %ebx
 804c8fb:	5d                   	pop    %ebp
 804c8fc:	c3                   	ret    
 804c8fd:	8d 76 00             	lea    0x0(%esi),%esi
 804c900:	31 c0                	xor    %eax,%eax
 804c902:	5b                   	pop    %ebx
 804c903:	5d                   	pop    %ebp
 804c904:	c3                   	ret    
 804c905:	8d 74 26 00          	lea    0x0(%esi,%eiz,1),%esi
 804c909:	8d bc 27 00 00 00 00 	lea    0x0(%edi,%eiz,1),%edi

0804c910 <stb_strrchr2>:
 804c910:	55                   	push   %ebp
 804c911:	89 e5                	mov    %esp,%ebp
 804c913:	8b 4d 08             	mov    0x8(%ebp),%ecx
 804c916:	56                   	push   %esi
 804c917:	31 f6                	xor    %esi,%esi
 804c919:	0f b6 45 10          	movzbl 0x10(%ebp),%eax
 804c91d:	53                   	push   %ebx
 804c91e:	0f b6 5d 0c          	movzbl 0xc(%ebp),%ebx
 804c922:	0f b6 11             	movzbl (%ecx),%edx
 804c925:	84 d2                	test   %dl,%dl
 804c927:	75 15                	jne    804c93e <stb_strrchr2+0x2e>
 804c929:	eb 23                	jmp    804c94e <stb_strrchr2+0x3e>
 804c92b:	90                   	nop
 804c92c:	8d 74 26 00          	lea    0x0(%esi,%eiz,1),%esi
 804c930:	38 c2                	cmp    %al,%dl
 804c932:	74 0e                	je     804c942 <stb_strrchr2+0x32>
 804c934:	83 c1 01             	add    $0x1,%ecx
 804c937:	0f b6 11             	movzbl (%ecx),%edx
 804c93a:	84 d2                	test   %dl,%dl
 804c93c:	74 10                	je     804c94e <stb_strrchr2+0x3e>
 804c93e:	38 da                	cmp    %bl,%dl
 804c940:	75 ee                	jne    804c930 <stb_strrchr2+0x20>
 804c942:	89 ce                	mov    %ecx,%esi
 804c944:	83 c1 01             	add    $0x1,%ecx
 804c947:	0f b6 11             	movzbl (%ecx),%edx
 804c94a:	84 d2                	test   %dl,%dl
 804c94c:	75 f0                	jne    804c93e <stb_strrchr2+0x2e>
 804c94e:	89 f0                	mov    %esi,%eax
 804c950:	5b                   	pop    %ebx
 804c951:	5e                   	pop    %esi
 804c952:	5d                   	pop    %ebp
 804c953:	c3                   	ret    
 804c954:	8d b6 00 00 00 00    	lea    0x0(%esi),%esi
 804c95a:	8d bf 00 00 00 00    	lea    0x0(%edi),%edi

0804c960 <stb_fixpath>:
 804c960:	55                   	push   %ebp
 804c961:	89 e5                	mov    %esp,%ebp
 804c963:	8b 45 08             	mov    0x8(%ebp),%eax
 804c966:	0f b6 10             	movzbl (%eax),%edx
 804c969:	84 d2                	test   %dl,%dl
 804c96b:	75 0d                	jne    804c97a <stb_fixpath+0x1a>
 804c96d:	eb 20                	jmp    804c98f <stb_fixpath+0x2f>
 804c96f:	90                   	nop
 804c970:	83 c0 01             	add    $0x1,%eax
 804c973:	0f b6 10             	movzbl (%eax),%edx
 804c976:	84 d2                	test   %dl,%dl
 804c978:	74 15                	je     804c98f <stb_fixpath+0x2f>
 804c97a:	80 fa 5c             	cmp    $0x5c,%dl
 804c97d:	8d 76 00             	lea    0x0(%esi),%esi
 804c980:	75 ee                	jne    804c970 <stb_fixpath+0x10>
 804c982:	c6 00 2f             	movb   $0x2f,(%eax)
 804c985:	83 c0 01             	add    $0x1,%eax
 804c988:	0f b6 10             	movzbl (%eax),%edx
 804c98b:	84 d2                	test   %dl,%dl
 804c98d:	75 eb                	jne    804c97a <stb_fixpath+0x1a>
 804c98f:	5d                   	pop    %ebp
 804c990:	c3                   	ret    
 804c991:	eb 0d                	jmp    804c9a0 <stb_malloc_validate>
 804c993:	90                   	nop
 804c994:	90                   	nop
 804c995:	90                   	nop
 804c996:	90                   	nop
 804c997:	90                   	nop
 804c998:	90                   	nop
 804c999:	90                   	nop
 804c99a:	90                   	nop
 804c99b:	90                   	nop
 804c99c:	90                   	nop
 804c99d:	90                   	nop
 804c99e:	90                   	nop
 804c99f:	90                   	nop

0804c9a0 <stb_malloc_validate>:
 804c9a0:	55                   	push   %ebp
 804c9a1:	89 e5                	mov    %esp,%ebp
 804c9a3:	53                   	push   %ebx
 804c9a4:	83 ec 14             	sub    $0x14,%esp
 804c9a7:	8b 45 08             	mov    0x8(%ebp),%eax
 804c9aa:	85 c0                	test   %eax,%eax
 804c9ac:	74 21                	je     804c9cf <stb_malloc_validate+0x2f>
 804c9ae:	8b 50 fc             	mov    -0x4(%eax),%edx
 804c9b1:	83 e2 03             	and    $0x3,%edx
 804c9b4:	75 14                	jne    804c9ca <stb_malloc_validate+0x2a>
 804c9b6:	8d 50 f8             	lea    -0x8(%eax),%edx
 804c9b9:	8b 40 f8             	mov    -0x8(%eax),%eax
 804c9bc:	85 c0                	test   %eax,%eax
 804c9be:	74 0f                	je     804c9cf <stb_malloc_validate+0x2f>
 804c9c0:	89 d0                	mov    %edx,%eax
 804c9c2:	8b 50 fc             	mov    -0x4(%eax),%edx
 804c9c5:	83 e2 03             	and    $0x3,%edx
 804c9c8:	74 ec                	je     804c9b6 <stb_malloc_validate+0x16>
 804c9ca:	83 fa 02             	cmp    $0x2,%edx
 804c9cd:	74 09                	je     804c9d8 <stb_malloc_validate+0x38>
 804c9cf:	83 c4 14             	add    $0x14,%esp
 804c9d2:	5b                   	pop    %ebx
 804c9d3:	5d                   	pop    %ebp
 804c9d4:	c3                   	ret    
 804c9d5:	8d 76 00             	lea    0x0(%esi),%esi
 804c9d8:	8d 58 f0             	lea    -0x10(%eax),%ebx
 804c9db:	8b 53 04             	mov    0x4(%ebx),%edx
 804c9de:	85 d2                	test   %edx,%edx
 804c9e0:	74 0c                	je     804c9ee <stb_malloc_validate+0x4e>
 804c9e2:	89 44 24 04          	mov    %eax,0x4(%esp)
 804c9e6:	89 14 24             	mov    %edx,(%esp)
 804c9e9:	e8 b2 ff ff ff       	call   804c9a0 <stb_malloc_validate>
 804c9ee:	8b 43 08             	mov    0x8(%ebx),%eax
 804c9f1:	85 c0                	test   %eax,%eax
 804c9f3:	75 b9                	jne    804c9ae <stb_malloc_validate+0xe>
 804c9f5:	eb d8                	jmp    804c9cf <stb_malloc_validate+0x2f>
 804c9f7:	89 f6                	mov    %esi,%esi
 804c9f9:	8d bc 27 00 00 00 00 	lea    0x0(%edi,%eiz,1),%edi

0804ca00 <stb_reassign>:
 804ca00:	55                   	push   %ebp
 804ca01:	ba 9c e2 05 08       	mov    $0x805e29c,%edx
 804ca06:	89 e5                	mov    %esp,%ebp
 804ca08:	83 ec 0c             	sub    $0xc,%esp
 804ca0b:	8b 4d 08             	mov    0x8(%ebp),%ecx
 804ca0e:	89 1c 24             	mov    %ebx,(%esp)
 804ca11:	8b 45 0c             	mov    0xc(%ebp),%eax
 804ca14:	89 74 24 04          	mov    %esi,0x4(%esp)
 804ca18:	89 7c 24 08          	mov    %edi,0x8(%esp)
 804ca1c:	85 c9                	test   %ecx,%ecx
 804ca1e:	74 14                	je     804ca34 <stb_reassign+0x34>
 804ca20:	8b 51 fc             	mov    -0x4(%ecx),%edx
 804ca23:	89 d3                	mov    %edx,%ebx
 804ca25:	83 e3 03             	and    $0x3,%ebx
 804ca28:	83 fb 01             	cmp    $0x1,%ebx
 804ca2b:	0f 84 bf 00 00 00    	je     804caf0 <stb_reassign+0xf0>
 804ca31:	8d 51 f0             	lea    -0x10(%ecx),%edx
 804ca34:	8b 48 fc             	mov    -0x4(%eax),%ecx
 804ca37:	83 e1 03             	and    $0x3,%ecx
 804ca3a:	83 f9 02             	cmp    $0x2,%ecx
 804ca3d:	74 61                	je     804caa0 <stb_reassign+0xa0>
 804ca3f:	8d 48 f8             	lea    -0x8(%eax),%ecx
 804ca42:	8b 58 f8             	mov    -0x8(%eax),%ebx
 804ca45:	8b 79 04             	mov    0x4(%ecx),%edi
 804ca48:	89 1f                	mov    %ebx,(%edi)
 804ca4a:	8b 58 f8             	mov    -0x8(%eax),%ebx
 804ca4d:	85 db                	test   %ebx,%ebx
 804ca4f:	74 14                	je     804ca65 <stb_reassign+0x65>
 804ca51:	8b 73 fc             	mov    -0x4(%ebx),%esi
 804ca54:	83 e6 03             	and    $0x3,%esi
 804ca57:	83 fe 02             	cmp    $0x2,%esi
 804ca5a:	0f 84 a0 00 00 00    	je     804cb00 <stb_reassign+0x100>
 804ca60:	83 eb 04             	sub    $0x4,%ebx
 804ca63:	89 3b                	mov    %edi,(%ebx)
 804ca65:	8d 5a 04             	lea    0x4(%edx),%ebx
 804ca68:	89 59 04             	mov    %ebx,0x4(%ecx)
 804ca6b:	8b 5a 04             	mov    0x4(%edx),%ebx
 804ca6e:	89 58 f8             	mov    %ebx,-0x8(%eax)
 804ca71:	89 42 04             	mov    %eax,0x4(%edx)
 804ca74:	8b 40 f8             	mov    -0x8(%eax),%eax
 804ca77:	85 c0                	test   %eax,%eax
 804ca79:	74 10                	je     804ca8b <stb_reassign+0x8b>
 804ca7b:	8b 50 fc             	mov    -0x4(%eax),%edx
 804ca7e:	83 e2 03             	and    $0x3,%edx
 804ca81:	83 fa 02             	cmp    $0x2,%edx
 804ca84:	74 72                	je     804caf8 <stb_reassign+0xf8>
 804ca86:	83 e8 04             	sub    $0x4,%eax
 804ca89:	89 08                	mov    %ecx,(%eax)
 804ca8b:	8b 1c 24             	mov    (%esp),%ebx
 804ca8e:	8b 74 24 04          	mov    0x4(%esp),%esi
 804ca92:	8b 7c 24 08          	mov    0x8(%esp),%edi
 804ca96:	89 ec                	mov    %ebp,%esp
 804ca98:	5d                   	pop    %ebp
 804ca99:	c3                   	ret    
 804ca9a:	8d b6 00 00 00 00    	lea    0x0(%esi),%esi
 804caa0:	8d 48 f0             	lea    -0x10(%eax),%ecx
 804caa3:	8b 78 f0             	mov    -0x10(%eax),%edi
 804caa6:	8b 59 08             	mov    0x8(%ecx),%ebx
 804caa9:	89 1f                	mov    %ebx,(%edi)
 804caab:	8b 59 08             	mov    0x8(%ecx),%ebx
 804caae:	85 db                	test   %ebx,%ebx
 804cab0:	74 10                	je     804cac2 <stb_reassign+0xc2>
 804cab2:	8b 73 fc             	mov    -0x4(%ebx),%esi
 804cab5:	83 e6 03             	and    $0x3,%esi
 804cab8:	83 fe 02             	cmp    $0x2,%esi
 804cabb:	74 5b                	je     804cb18 <stb_reassign+0x118>
 804cabd:	83 eb 04             	sub    $0x4,%ebx
 804cac0:	89 3b                	mov    %edi,(%ebx)
 804cac2:	8d 5a 04             	lea    0x4(%edx),%ebx
 804cac5:	89 58 f0             	mov    %ebx,-0x10(%eax)
 804cac8:	8b 5a 04             	mov    0x4(%edx),%ebx
 804cacb:	89 42 04             	mov    %eax,0x4(%edx)
 804cace:	85 db                	test   %ebx,%ebx
 804cad0:	89 59 08             	mov    %ebx,0x8(%ecx)
 804cad3:	74 b6                	je     804ca8b <stb_reassign+0x8b>
 804cad5:	8b 43 fc             	mov    -0x4(%ebx),%eax
 804cad8:	83 e0 03             	and    $0x3,%eax
 804cadb:	83 f8 02             	cmp    $0x2,%eax
 804cade:	74 30                	je     804cb10 <stb_reassign+0x110>
 804cae0:	83 eb 04             	sub    $0x4,%ebx
 804cae3:	83 c1 08             	add    $0x8,%ecx
 804cae6:	89 0b                	mov    %ecx,(%ebx)
 804cae8:	eb a1                	jmp    804ca8b <stb_reassign+0x8b>
 804caea:	8d b6 00 00 00 00    	lea    0x0(%esi),%esi
 804caf0:	83 ea 01             	sub    $0x1,%edx
 804caf3:	e9 3c ff ff ff       	jmp    804ca34 <stb_reassign+0x34>
 804caf8:	83 e8 10             	sub    $0x10,%eax
 804cafb:	89 08                	mov    %ecx,(%eax)
 804cafd:	eb 8c                	jmp    804ca8b <stb_reassign+0x8b>
 804caff:	90                   	nop
 804cb00:	83 eb 10             	sub    $0x10,%ebx
 804cb03:	89 3b                	mov    %edi,(%ebx)
 804cb05:	e9 5b ff ff ff       	jmp    804ca65 <stb_reassign+0x65>
 804cb0a:	8d b6 00 00 00 00    	lea    0x0(%esi),%esi
 804cb10:	83 eb 10             	sub    $0x10,%ebx
 804cb13:	eb ce                	jmp    804cae3 <stb_reassign+0xe3>
 804cb15:	8d 76 00             	lea    0x0(%esi),%esi
 804cb18:	83 eb 10             	sub    $0x10,%ebx
 804cb1b:	89 3b                	mov    %edi,(%ebx)
 804cb1d:	eb a3                	jmp    804cac2 <stb_reassign+0xc2>
 804cb1f:	90                   	nop

0804cb20 <stb_arr_malloc_parent>:
 804cb20:	55                   	push   %ebp
 804cb21:	a1 5c 4a 06 08       	mov    0x8064a5c,%eax
 804cb26:	89 e5                	mov    %esp,%ebp
 804cb28:	8b 55 08             	mov    0x8(%ebp),%edx
 804cb2b:	5d                   	pop    %ebp
 804cb2c:	89 15 5c 4a 06 08    	mov    %edx,0x8064a5c
 804cb32:	c3                   	ret    
 804cb33:	8d b6 00 00 00 00    	lea    0x0(%esi),%esi
 804cb39:	8d bc 27 00 00 00 00 	lea    0x0(%edi,%eiz,1),%edi

0804cb40 <stb_hash>:
 804cb40:	55                   	push   %ebp
 804cb41:	31 c0                	xor    %eax,%eax
 804cb43:	89 e5                	mov    %esp,%ebp
 804cb45:	8b 4d 08             	mov    0x8(%ebp),%ecx
 804cb48:	53                   	push   %ebx
 804cb49:	31 db                	xor    %ebx,%ebx
 804cb4b:	0f b6 11             	movzbl (%ecx),%edx
 804cb4e:	84 d2                	test   %dl,%dl
 804cb50:	74 20                	je     804cb72 <stb_hash+0x32>
 804cb52:	8d b6 00 00 00 00    	lea    0x0(%esi),%esi
 804cb58:	c1 cb 19             	ror    $0x19,%ebx
 804cb5b:	0f be d2             	movsbl %dl,%edx
 804cb5e:	83 c1 01             	add    $0x1,%ecx
 804cb61:	8d 1c 1a             	lea    (%edx,%ebx,1),%ebx
 804cb64:	0f b6 11             	movzbl (%ecx),%edx
 804cb67:	84 d2                	test   %dl,%dl
 804cb69:	75 ed                	jne    804cb58 <stb_hash+0x18>
 804cb6b:	89 d8                	mov    %ebx,%eax
 804cb6d:	c1 e8 10             	shr    $0x10,%eax
 804cb70:	01 d8                	add    %ebx,%eax
 804cb72:	5b                   	pop    %ebx
 804cb73:	5d                   	pop    %ebp
 804cb74:	c3                   	ret    
 804cb75:	8d 74 26 00          	lea    0x0(%esi,%eiz,1),%esi
 804cb79:	8d bc 27 00 00 00 00 	lea    0x0(%edi,%eiz,1),%edi

0804cb80 <stb_hashlen>:
 804cb80:	55                   	push   %ebp
 804cb81:	89 e5                	mov    %esp,%ebp
 804cb83:	8b 45 0c             	mov    0xc(%ebp),%eax
 804cb86:	53                   	push   %ebx
 804cb87:	8b 4d 08             	mov    0x8(%ebp),%ecx
 804cb8a:	85 c0                	test   %eax,%eax
 804cb8c:	7e 36                	jle    804cbc4 <stb_hashlen+0x44>
 804cb8e:	0f b6 11             	movzbl (%ecx),%edx
 804cb91:	84 d2                	test   %dl,%dl
 804cb93:	74 2f                	je     804cbc4 <stb_hashlen+0x44>
 804cb95:	83 e8 01             	sub    $0x1,%eax
 804cb98:	31 db                	xor    %ebx,%ebx
 804cb9a:	eb 11                	jmp    804cbad <stb_hashlen+0x2d>
 804cb9c:	8d 74 26 00          	lea    0x0(%esi,%eiz,1),%esi
 804cba0:	83 c1 01             	add    $0x1,%ecx
 804cba3:	83 e8 01             	sub    $0x1,%eax
 804cba6:	0f b6 11             	movzbl (%ecx),%edx
 804cba9:	84 d2                	test   %dl,%dl
 804cbab:	74 0d                	je     804cbba <stb_hashlen+0x3a>
 804cbad:	c1 cb 19             	ror    $0x19,%ebx
 804cbb0:	0f be d2             	movsbl %dl,%edx
 804cbb3:	85 c0                	test   %eax,%eax
 804cbb5:	8d 1c 1a             	lea    (%edx,%ebx,1),%ebx
 804cbb8:	7f e6                	jg     804cba0 <stb_hashlen+0x20>
 804cbba:	89 d8                	mov    %ebx,%eax
 804cbbc:	c1 e8 10             	shr    $0x10,%eax
 804cbbf:	01 d8                	add    %ebx,%eax
 804cbc1:	5b                   	pop    %ebx
 804cbc2:	5d                   	pop    %ebp
 804cbc3:	c3                   	ret    
 804cbc4:	31 c0                	xor    %eax,%eax
 804cbc6:	eb f9                	jmp    804cbc1 <stb_hashlen+0x41>
 804cbc8:	90                   	nop
 804cbc9:	8d b4 26 00 00 00 00 	lea    0x0(%esi,%eiz,1),%esi

0804cbd0 <stb_hashptr>:
 804cbd0:	55                   	push   %ebp
 804cbd1:	89 e5                	mov    %esp,%ebp
 804cbd3:	8b 45 08             	mov    0x8(%ebp),%eax
 804cbd6:	5d                   	pop    %ebp
 804cbd7:	89 c1                	mov    %eax,%ecx
 804cbd9:	89 c2                	mov    %eax,%edx
 804cbdb:	c1 e9 06             	shr    $0x6,%ecx
 804cbde:	c1 ea 13             	shr    $0x13,%edx
 804cbe1:	8d 14 11             	lea    (%ecx,%edx,1),%edx
 804cbe4:	8d 04 02             	lea    (%edx,%eax,1),%eax
 804cbe7:	89 c2                	mov    %eax,%edx
 804cbe9:	c1 e2 10             	shl    $0x10,%edx
 804cbec:	01 c2                	add    %eax,%edx
 804cbee:	8d 04 d5 00 00 00 00 	lea    0x0(,%edx,8),%eax
 804cbf5:	31 d0                	xor    %edx,%eax
 804cbf7:	89 c2                	mov    %eax,%edx
 804cbf9:	c1 ea 05             	shr    $0x5,%edx
 804cbfc:	01 c2                	add    %eax,%edx
 804cbfe:	8d 04 95 00 00 00 00 	lea    0x0(,%edx,4),%eax
 804cc05:	31 d0                	xor    %edx,%eax
 804cc07:	89 c2                	mov    %eax,%edx
 804cc09:	c1 ea 0f             	shr    $0xf,%edx
 804cc0c:	01 c2                	add    %eax,%edx
 804cc0e:	89 d0                	mov    %edx,%eax
 804cc10:	c1 e0 0a             	shl    $0xa,%eax
 804cc13:	31 d0                	xor    %edx,%eax
 804cc15:	89 c1                	mov    %eax,%ecx
 804cc17:	89 c2                	mov    %eax,%edx
 804cc19:	c1 e9 06             	shr    $0x6,%ecx
 804cc1c:	c1 ea 13             	shr    $0x13,%edx
 804cc1f:	8d 14 11             	lea    (%ecx,%edx,1),%edx
 804cc22:	8d 04 02             	lea    (%edx,%eax,1),%eax
 804cc25:	c3                   	ret    
 804cc26:	8d 76 00             	lea    0x0(%esi),%esi
 804cc29:	8d bc 27 00 00 00 00 	lea    0x0(%edi,%eiz,1),%edi

0804cc30 <stb_rehash_improved>:
 804cc30:	55                   	push   %ebp
 804cc31:	89 e5                	mov    %esp,%ebp
 804cc33:	5d                   	pop    %ebp
 804cc34:	e9 97 ff ff ff       	jmp    804cbd0 <stb_hashptr>
 804cc39:	8d b4 26 00 00 00 00 	lea    0x0(%esi,%eiz,1),%esi

0804cc40 <stb_hash2>:
 804cc40:	55                   	push   %ebp
 804cc41:	b8 1c d1 41 31       	mov    $0x3141d11c,%eax
 804cc46:	89 e5                	mov    %esp,%ebp
 804cc48:	8b 4d 08             	mov    0x8(%ebp),%ecx
 804cc4b:	57                   	push   %edi
 804cc4c:	bf 2e 76 f0 77       	mov    $0x77f0762e,%edi
 804cc51:	56                   	push   %esi
 804cc52:	be ed 44 f0 77       	mov    $0x77f044ed,%esi
 804cc57:	53                   	push   %ebx
 804cc58:	bb 2c 59 41 31       	mov    $0x3141592c,%ebx
 804cc5d:	0f b6 11             	movzbl (%ecx),%edx
 804cc60:	84 d2                	test   %dl,%dl
 804cc62:	74 29                	je     804cc8d <stb_hash2+0x4d>
 804cc64:	8d 74 26 00          	lea    0x0(%esi,%eiz,1),%esi
 804cc68:	0f be d2             	movsbl %dl,%edx
 804cc6b:	83 c1 01             	add    $0x1,%ecx
 804cc6e:	c1 cb 19             	ror    $0x19,%ebx
 804cc71:	c1 ce 15             	ror    $0x15,%esi
 804cc74:	01 d6                	add    %edx,%esi
 804cc76:	8d 1c 1a             	lea    (%edx,%ebx,1),%ebx
 804cc79:	0f b6 11             	movzbl (%ecx),%edx
 804cc7c:	84 d2                	test   %dl,%dl
 804cc7e:	75 e8                	jne    804cc68 <stb_hash2+0x28>
 804cc80:	89 df                	mov    %ebx,%edi
 804cc82:	c1 ef 10             	shr    $0x10,%edi
 804cc85:	01 f7                	add    %esi,%edi
 804cc87:	c1 ee 10             	shr    $0x10,%esi
 804cc8a:	8d 04 1e             	lea    (%esi,%ebx,1),%eax
 804cc8d:	8b 55 0c             	mov    0xc(%ebp),%edx
 804cc90:	89 3a                	mov    %edi,(%edx)
 804cc92:	5b                   	pop    %ebx
 804cc93:	5e                   	pop    %esi
 804cc94:	5f                   	pop    %edi
 804cc95:	5d                   	pop    %ebp
 804cc96:	c3                   	ret    
 804cc97:	89 f6                	mov    %esi,%esi
 804cc99:	8d bc 27 00 00 00 00 	lea    0x0(%edi,%eiz,1),%edi

0804cca0 <stb_hash_fast>:
 804cca0:	55                   	push   %ebp
 804cca1:	89 e5                	mov    %esp,%ebp
 804cca3:	57                   	push   %edi
 804cca4:	56                   	push   %esi
 804cca5:	53                   	push   %ebx
 804cca6:	83 ec 08             	sub    $0x8,%esp
 804cca9:	8b 45 08             	mov    0x8(%ebp),%eax
 804ccac:	8b 55 0c             	mov    0xc(%ebp),%edx
 804ccaf:	85 c0                	test   %eax,%eax
 804ccb1:	0f 84 49 01 00 00    	je     804ce00 <stb_hash_fast+0x160>
 804ccb7:	85 d2                	test   %edx,%edx
 804ccb9:	0f 8e 41 01 00 00    	jle    804ce00 <stb_hash_fast+0x160>
 804ccbf:	f6 45 08 01          	testb  $0x1,0x8(%ebp)
 804ccc3:	89 d1                	mov    %edx,%ecx
 804ccc5:	0f 85 d5 00 00 00    	jne    804cda0 <stb_hash_fast+0x100>
 804cccb:	83 fa 03             	cmp    $0x3,%edx
 804ccce:	66 90                	xchg   %ax,%ax
 804ccd0:	7e 6e                	jle    804cd40 <stb_hash_fast+0xa0>
 804ccd2:	8d 42 fc             	lea    -0x4(%edx),%eax
 804ccd5:	8b 55 08             	mov    0x8(%ebp),%edx
 804ccd8:	89 45 ec             	mov    %eax,-0x14(%ebp)
 804ccdb:	c1 e8 02             	shr    $0x2,%eax
 804ccde:	89 45 f0             	mov    %eax,-0x10(%ebp)
 804cce1:	8d 7c 82 04          	lea    0x4(%edx,%eax,4),%edi
 804cce5:	89 d0                	mov    %edx,%eax
 804cce7:	89 ca                	mov    %ecx,%edx
 804cce9:	8d b4 26 00 00 00 00 	lea    0x0(%esi,%eiz,1),%esi
 804ccf0:	0f b6 58 01          	movzbl 0x1(%eax),%ebx
 804ccf4:	0f b6 08             	movzbl (%eax),%ecx
 804ccf7:	0f b6 70 02          	movzbl 0x2(%eax),%esi
 804ccfb:	c1 e3 08             	shl    $0x8,%ebx
 804ccfe:	8d 0c 0b             	lea    (%ebx,%ecx,1),%ecx
 804cd01:	8d 0c 0a             	lea    (%edx,%ecx,1),%ecx
 804cd04:	0f b6 50 03          	movzbl 0x3(%eax),%edx
 804cd08:	83 c0 04             	add    $0x4,%eax
 804cd0b:	89 cb                	mov    %ecx,%ebx
 804cd0d:	c1 e3 10             	shl    $0x10,%ebx
 804cd10:	c1 e2 08             	shl    $0x8,%edx
 804cd13:	01 f2                	add    %esi,%edx
 804cd15:	c1 e2 0b             	shl    $0xb,%edx
 804cd18:	31 ca                	xor    %ecx,%edx
 804cd1a:	31 da                	xor    %ebx,%edx
 804cd1c:	89 d1                	mov    %edx,%ecx
 804cd1e:	c1 e9 0b             	shr    $0xb,%ecx
 804cd21:	39 f8                	cmp    %edi,%eax
 804cd23:	8d 14 11             	lea    (%ecx,%edx,1),%edx
 804cd26:	75 c8                	jne    804ccf0 <stb_hash_fast+0x50>
 804cd28:	8b 5d f0             	mov    -0x10(%ebp),%ebx
 804cd2b:	89 d1                	mov    %edx,%ecx
 804cd2d:	8b 55 08             	mov    0x8(%ebp),%edx
 804cd30:	8d 44 9a 04          	lea    0x4(%edx,%ebx,4),%eax
 804cd34:	89 da                	mov    %ebx,%edx
 804cd36:	8b 5d ec             	mov    -0x14(%ebp),%ebx
 804cd39:	c1 e2 02             	shl    $0x2,%edx
 804cd3c:	29 d3                	sub    %edx,%ebx
 804cd3e:	89 da                	mov    %ebx,%edx
 804cd40:	83 fa 02             	cmp    $0x2,%edx
 804cd43:	0f 84 f7 00 00 00    	je     804ce40 <stb_hash_fast+0x1a0>
 804cd49:	83 fa 03             	cmp    $0x3,%edx
 804cd4c:	0f 84 be 00 00 00    	je     804ce10 <stb_hash_fast+0x170>
 804cd52:	83 fa 01             	cmp    $0x1,%edx
 804cd55:	75 13                	jne    804cd6a <stb_hash_fast+0xca>
 804cd57:	0f b6 00             	movzbl (%eax),%eax
 804cd5a:	8d 0c 08             	lea    (%eax,%ecx,1),%ecx
 804cd5d:	89 c8                	mov    %ecx,%eax
 804cd5f:	c1 e0 0a             	shl    $0xa,%eax
 804cd62:	31 c8                	xor    %ecx,%eax
 804cd64:	89 c1                	mov    %eax,%ecx
 804cd66:	d1 e9                	shr    %ecx
 804cd68:	01 c1                	add    %eax,%ecx
 804cd6a:	8d 04 cd 00 00 00 00 	lea    0x0(,%ecx,8),%eax
 804cd71:	83 c4 08             	add    $0x8,%esp
 804cd74:	31 c8                	xor    %ecx,%eax
 804cd76:	89 c2                	mov    %eax,%edx
 804cd78:	c1 ea 05             	shr    $0x5,%edx
 804cd7b:	01 c2                	add    %eax,%edx
 804cd7d:	89 d0                	mov    %edx,%eax
 804cd7f:	c1 e0 04             	shl    $0x4,%eax
 804cd82:	31 d0                	xor    %edx,%eax
 804cd84:	89 c2                	mov    %eax,%edx
 804cd86:	c1 ea 11             	shr    $0x11,%edx
 804cd89:	01 c2                	add    %eax,%edx
 804cd8b:	89 d0                	mov    %edx,%eax
 804cd8d:	c1 e0 19             	shl    $0x19,%eax
 804cd90:	31 d0                	xor    %edx,%eax
 804cd92:	89 c2                	mov    %eax,%edx
 804cd94:	c1 ea 06             	shr    $0x6,%edx
 804cd97:	8d 04 02             	lea    (%edx,%eax,1),%eax
 804cd9a:	5b                   	pop    %ebx
 804cd9b:	5e                   	pop    %esi
 804cd9c:	5f                   	pop    %edi
 804cd9d:	5d                   	pop    %ebp
 804cd9e:	c3                   	ret    
 804cd9f:	90                   	nop
 804cda0:	83 fa 03             	cmp    $0x3,%edx
 804cda3:	7e 9b                	jle    804cd40 <stb_hash_fast+0xa0>
 804cda5:	8d 42 fc             	lea    -0x4(%edx),%eax
 804cda8:	8b 55 08             	mov    0x8(%ebp),%edx
 804cdab:	89 45 ec             	mov    %eax,-0x14(%ebp)
 804cdae:	c1 e8 02             	shr    $0x2,%eax
 804cdb1:	89 45 f0             	mov    %eax,-0x10(%ebp)
 804cdb4:	8d 7c 82 04          	lea    0x4(%edx,%eax,4),%edi
 804cdb8:	89 d0                	mov    %edx,%eax
 804cdba:	89 ca                	mov    %ecx,%edx
 804cdbc:	8d 74 26 00          	lea    0x0(%esi,%eiz,1),%esi
 804cdc0:	0f b6 58 01          	movzbl 0x1(%eax),%ebx
 804cdc4:	0f b6 08             	movzbl (%eax),%ecx
 804cdc7:	0f b6 70 02          	movzbl 0x2(%eax),%esi
 804cdcb:	c1 e3 08             	shl    $0x8,%ebx
 804cdce:	8d 0c 0b             	lea    (%ebx,%ecx,1),%ecx
 804cdd1:	8d 0c 0a             	lea    (%edx,%ecx,1),%ecx
 804cdd4:	0f b6 50 03          	movzbl 0x3(%eax),%edx
 804cdd8:	83 c0 04             	add    $0x4,%eax
 804cddb:	89 cb                	mov    %ecx,%ebx
 804cddd:	c1 e3 10             	shl    $0x10,%ebx
 804cde0:	c1 e2 08             	shl    $0x8,%edx
 804cde3:	01 f2                	add    %esi,%edx
 804cde5:	c1 e2 0b             	shl    $0xb,%edx
 804cde8:	31 ca                	xor    %ecx,%edx
 804cdea:	31 da                	xor    %ebx,%edx
 804cdec:	89 d1                	mov    %edx,%ecx
 804cdee:	c1 e9 0b             	shr    $0xb,%ecx
 804cdf1:	39 f8                	cmp    %edi,%eax
 804cdf3:	8d 14 11             	lea    (%ecx,%edx,1),%edx
 804cdf6:	75 c8                	jne    804cdc0 <stb_hash_fast+0x120>
 804cdf8:	e9 2b ff ff ff       	jmp    804cd28 <stb_hash_fast+0x88>
 804cdfd:	8d 76 00             	lea    0x0(%esi),%esi
 804ce00:	83 c4 08             	add    $0x8,%esp
 804ce03:	31 c0                	xor    %eax,%eax
 804ce05:	5b                   	pop    %ebx
 804ce06:	5e                   	pop    %esi
 804ce07:	5f                   	pop    %edi
 804ce08:	5d                   	pop    %ebp
 804ce09:	c3                   	ret    
 804ce0a:	8d b6 00 00 00 00    	lea    0x0(%esi),%esi
 804ce10:	0f b6 50 01          	movzbl 0x1(%eax),%edx
 804ce14:	0f b6 18             	movzbl (%eax),%ebx
 804ce17:	0f b6 40 02          	movzbl 0x2(%eax),%eax
 804ce1b:	c1 e2 08             	shl    $0x8,%edx
 804ce1e:	01 da                	add    %ebx,%edx
 804ce20:	8d 0c 0a             	lea    (%edx,%ecx,1),%ecx
 804ce23:	89 ca                	mov    %ecx,%edx
 804ce25:	c1 e0 12             	shl    $0x12,%eax
 804ce28:	31 c8                	xor    %ecx,%eax
 804ce2a:	c1 e2 10             	shl    $0x10,%edx
 804ce2d:	31 d0                	xor    %edx,%eax
 804ce2f:	89 c1                	mov    %eax,%ecx
 804ce31:	c1 e9 0b             	shr    $0xb,%ecx
 804ce34:	01 c1                	add    %eax,%ecx
 804ce36:	e9 2f ff ff ff       	jmp    804cd6a <stb_hash_fast+0xca>
 804ce3b:	90                   	nop
 804ce3c:	8d 74 26 00          	lea    0x0(%esi,%eiz,1),%esi
 804ce40:	0f b6 50 01          	movzbl 0x1(%eax),%edx
 804ce44:	0f b6 00             	movzbl (%eax),%eax
 804ce47:	c1 e2 08             	shl    $0x8,%edx
 804ce4a:	01 c2                	add    %eax,%edx
 804ce4c:	8d 0c 0a             	lea    (%edx,%ecx,1),%ecx
 804ce4f:	89 c8                	mov    %ecx,%eax
 804ce51:	c1 e0 0b             	shl    $0xb,%eax
 804ce54:	31 c8                	xor    %ecx,%eax
 804ce56:	89 c1                	mov    %eax,%ecx
 804ce58:	c1 e9 11             	shr    $0x11,%ecx
 804ce5b:	01 c1                	add    %eax,%ecx
 804ce5d:	e9 08 ff ff ff       	jmp    804cd6a <stb_hash_fast+0xca>
 804ce62:	8d b4 26 00 00 00 00 	lea    0x0(%esi,%eiz,1),%esi
 804ce69:	8d bc 27 00 00 00 00 	lea    0x0(%edi,%eiz,1),%edi

0804ce70 <stb_hash_number>:
 804ce70:	55                   	push   %ebp
 804ce71:	89 e5                	mov    %esp,%ebp
 804ce73:	8b 55 08             	mov    0x8(%ebp),%edx
 804ce76:	5d                   	pop    %ebp
 804ce77:	8d 04 d5 00 00 00 00 	lea    0x0(,%edx,8),%eax
 804ce7e:	31 d0                	xor    %edx,%eax
